# Additional valgrind suppression file for STAR.
#
# To use, run valgrind with:
#   valgrind --suppressions=$STAR/etc/valgrind-star.supp ...
#
# This file suppresses known and expected / inevitable valgrind
# reports, e.g. due to STAR's runtime type information that must
# survive until the end of the process and thus leaks.
# It only suppresses leaks, and a few errors generated by X11.

######### ROOT's RTTI
{
   TClass::AddClass()'s std::string
   Memcheck:Leak
   fun:_Znw?
   fun:_ZNSs4_Rep9_S_createE??RKSaIcE
   ...
   fun:_ZNSsC1EPKcRKSaIcE
   fun:_ZN6TClass8AddClassEPS_
}

{
   TCint::CreateListOfBaseClasses(TClass*)
   Memcheck:Leak
   fun:_Znw?
   fun:_ZN8TStorage11ObjectAllocE?
   fun:_ZN5TCint23CreateListOfBaseClassesEP6TClass
}

{
   <insert_a_suppression_name_here>
   Memcheck:Leak
   fun:_Znw?
   fun:_ZN5TList7NewLinkEP7TObjectP8TObjLink
   fun:_ZN5TList7AddLastEP7TObject
   fun:_ZN5TCint23CreateListOfBaseClassesEP6TClass
}

{
   TGenericClassInfo's fClass generated by ROOT::TQObjectInitBehavior::CreateClass()
   Memcheck:Leak
   fun:_Znw?
   fun:_ZN8TStorage11ObjectAllocE?
   fun:_ZN7TObjectnwE?
   fun:_ZNK4ROOT20TQObjectInitBehavior11CreateClassEPKcsRKSt9type_info*
}

{
   TClass long name
   Memcheck:Leak
   fun:_Zna?
   fun:_ZN7TString4InitEii
   fun:_ZN7TStringC1EPKc
   fun:_ZN6TClassC2EPKc*
}

{
   TDictionary long name
   Memcheck:Leak
   fun:_Zna?
   fun:_ZN7TString4InitEii
   fun:_ZN7TStringC1EPKc
   fun:_ZN6TNamedC1EPKcS1_
   fun:_ZN11TDictionaryC1EPKc
}

{
   TBaseClass long name
   Memcheck:Leak
   fun:_Zna?
   fun:_ZN7TString7ReplaceEiiPKci
   fun:_ZN7TStringaSEPKc
   fun:_ZN6TNamed7SetNameEPKc
   fun:_ZN10TBaseClassC1EPvP6TClass
}

{
   TDataType long name
   Memcheck:Leak
   fun:_Zna?
   fun:_ZN7TString7ReplaceEiiPKci
   fun:_ZN7TStringaSEPKc
   ...
   fun:_ZN9TDataTypeC1EPv
}

{
   Anything allocated by TClass::Init: new[]()
   Memcheck:Leak
   fun:_Zna?
   ...
   fun:_ZN6TClass4InitEPKcs*
}   

{
   Anything allocated by TClass::Init: new()
   Memcheck:Leak
   fun:_Znw?
   ...
   fun:_ZN6TClass4InitEPKcs*
}

{
   TClass thread local storage
   Memcheck:Leak
   fun:_Znw?
   fun:_ZN8TStorage11ObjectAllocE?
   fun:_ZN7TObjectnwE?
   fun:_ZN12_GLOBAL__N_118TClassLocalStorage10GetStorageEPK6TClass
}

{
   TThread global mutex
   Memcheck:Leak
   fun:_Znw?
   fun:_ZN8TStorage11ObjectAllocE?
   fun:_ZN7TObjectnwE?
   fun:_ZN7TThread4InitEv
}

{
   TClass's list of base classes (TDataMember elements)
   Memcheck:Leak
   fun:_Znw?
   fun:_ZN5TList7NewLinkEP7TObjectP8TObjLink
   fun:_ZN5TList7AddLastEP7TObject
   fun:_ZN5TList3AddEP7TObject
   fun:_ZN5TCint23CreateListOfBaseClassesEP6TClass
}

{
   TClass's list of base classes (G__DataMemberInfo elements)
   Memcheck:Leak
   fun:_Znw?
   fun:_ZN5TCint23CreateListOfBaseClassesEP6TClass
}

{
   TClass's list of base classes (TList container)
   Memcheck:Leak
   fun:_Znw?
   fun:_ZN8TStorage11ObjectAllocE?
   fun:_ZN7TObjectnwE?
   fun:_ZN5TCint23CreateListOfBaseClassesEP6TClass
}

{
   Unloaded TClass and its fClassInfo
   Memcheck:Leak
   fun:_Znw?
   fun:_ZN5TCint12SetClassInfoEP6TClassb
   fun:_ZN6TClass11SetUnloadedEv
}
 
{
   TClass::Init calling TCint::SetClassInfo
   Memcheck:Leak
   fun:_Znw?
   fun:_ZN5TCint12SetClassInfoEP6TClassb
   fun:_ZN6TClass4InitEPKcsPKSt9type_infoP16TVirtualIsAProxyPFvPvR16TMemberInspectorES1_S1_iib
}

{
   std::string uses in various place.
   Memcheck:Leak
   fun:_Znw?
   fun:_ZNSs4_Rep9_S_createE??RKSaIcE
   fun:_ZNSs9_M_mutateE???
   fun:_ZNSs15_M_replace_safeE??PKc?
}

{
   Array of objects allocated in TStreamerInfo::Compile
   Memcheck:Leak
   fun:_Zna?
   fun:_ZN13TStreamerInfo7CompileEv
}

{
   Strings allocated in TStreamerInfo::Compile
   Memcheck:Leak
   fun:_Zna?
   fun:_ZN7TString7ReplaceEiiPKci
   fun:_ZN7TStringaSERK10TSubString
   fun:_ZN13TStreamerInfo7CompileEv
}

{
   String reallocated in TStreamerInfo::Compile
   Memcheck:Leak
   fun:_Zna?
   fun:_ZN7TString7ReplaceEiiPKci
   fun:_ZN13TStreamerInfo7CompileEv

}

{
   StreamerInfo virtual table mechanism
   Memcheck:Leak
   fun:_Zna?
   fun:_ZN13TStreamerInfo8BuildOldEv
   fun:_ZNK6TClass15GetStreamerInfoEi
}

{
   StreamerInfo parts
   Memcheck:Leak
   fun:_Znw?
   fun:_ZN8TStorage11ObjectAllocE?
   fun:_ZN7TObjectnwE?
   fun:_ZN4ROOTL13new_TObjArrayEPv
   fun:_ZNK6TClass3NewENS_8ENewTypeE
   fun:_ZN11TBufferFile13ReadObjectAnyEPK6TClass
   fun:_ZrsI9TObjArrayER7TBufferS2_RPT_
   fun:_ZN13TStreamerInfo8StreamerER7TBuffer
}

{
   StreamerInfo parts
   Memcheck:Leak
   fun:_Zna?
   fun:_ZN8TStorage5AllocE?
   fun:_ZN9TObjArray4InitEii
   fun:_ZN9TObjArrayC1Eii
   fun:_ZN4ROOTL13new_TObjArrayEPv
   fun:_ZNK6TClass3NewENS_8ENewTypeE
   fun:_ZN11TBufferFile13ReadObjectAnyEPK6TClass
   fun:_ZrsI9TObjArrayER7TBufferS2_RPT_
   fun:_ZN13TStreamerInfo8StreamerER7TBuffer
}

{
   CollectionProxy objects
   Memcheck:Leak
   fun:_Znw?
   fun:_ZN23TCollectionProxyFactory24GenEmulatedClassStreamerEPKc
}

{
   CollectionProxy objects
   Memcheck:Leak
   fun:_Znw?
   fun:_ZNK19TGenCollectionProxy8GenerateEv
   fun:_ZNK6TClass18GetCollectionProxyEv
}

{
   CollectionProxy objects
   Memcheck:Leak
   fun:_Znw?
   fun:_ZNK19TGenCollectionProxy8GenerateEv
   fun:_ZN14TBranchElement4InitEP5TTreeP7TBranchPKcP23TVirtualCollectionProxyiii
}

{
   Part of CollectionProxy objects
   Memcheck:Leak
   fun:_Znw?
   ...
   fun:_ZN19TGenCollectionProxyC1ERKS_
}

{
   Part of CollectionProxy objects
   Memcheck:Leak
   fun:_Zna?
   ...
   fun:_ZN19TGenCollectionProxyC1ERKS_
}

{
   TClass's list of RealData.
   Memcheck:Leak
   fun:_Znw?
   fun:_ZN5TList7NewLinkEP7TObjectP8TObjLink
   fun:_ZN5TList7AddLastEP7TObject
   fun:_ZN5TList3AddEP7TObject
   fun:_ZN6TClass21BuildEmulatedRealDataEPKclPS_
}

{
   TClass's RealData objects.
   Memcheck:Leak
   fun:_Znw?
   fun:_ZN8TStorage11ObjectAllocE?
   fun:_ZN7TObjectnwE?
   fun:_ZN6TClass21BuildEmulatedRealDataEPKclPS_
}

{
   TClass's RealData objects.
   Memcheck:Leak
   fun:_Znw?
   fun:_ZN8TStorage11ObjectAllocE?
   fun:_ZN7TObjectnwE?
   fun:_ZN6TClass13BuildRealDataEPvb
}

{
   TEmulatedCollectionProxy configuration item
   Memcheck:Leak
   fun:_Znw?
   fun:_ZN24TEmulatedCollectionProxy12InitializeExEv
}

{
   ROOT's list of types objects
   Memcheck:Leak
   fun:_Znw?
   fun:_ZN8TStorage11ObjectAllocE?
   fun:_ZN7TObjectnwE?
   fun:_ZN5TCint17UpdateListOfTypesEv
}

{
   ROOT's list of types
   Memcheck:Leak
   fun:_Znw?
   fun:_ZN5TCint17UpdateListOfTypesEv
}

{
   ROOT's list of types internals
   Memcheck:Leak
   fun:_Znw?
   fun:_ZN5TList7NewLinkEP7TObjectP8TObjLink
   fun:_ZN5TList7AddLastEP7TObject
   fun:_ZN5TList3AddEP7TObject
   fun:_ZN10THashTable3AddEP7TObject
   fun:_ZN10THashTable6RehashEib
   fun:_ZN10THashTable3AddEP7TObject
   fun:_ZN5TCint17UpdateListOfTypesEv
} 

######### ROOT I/O

{
   zlib fill_window issue, see zlib.net FAQ #36 and comment "If n is not on any hash chain, prev[n] is garbage but" in zlib deflate.c.  See http://www.zlib.net/zlib_faq.html#faq36.  Even though the code was correct, versions 1.2.4 and later was changed to not stimulate these checkers.
   Memcheck:Cond
   fun:fill_window
   fun:deflate_fast
   fun:deflate
}

{
   zlib deflate issue, see zlib.net FAQ #36: http://www.zlib.net/zlib_faq.html#faq36 which says that it was due to changing from calloc to malloc.  And notes, that even though the code was correct, versions 1.2.4 and later was changed to not stimulate these checkers.
   Memcheck:Cond
   fun:longest_match
   ... 
   fun:deflate
}

######### CINT

{
   CINT's G__rate_parameter_match bogus report
   Memcheck:Cond
   fun:G__rate_parameter_match
   fun:G__overload_match
}

{
   CINT's function parameter info
   Memcheck:Leak
   fun:malloc
   fun:G__memfunc_para_setup
}

{
   CINT's function parameter info part 2
   Memcheck:Leak
   fun:malloc
   fun:_ZN9G__paramsixEi
   fun:G__memfunc_para_setup
}

{
   CINT's function info
   Memcheck:Leak
   fun:malloc
   fun:G__memfunc_next
}

{
   CINT's function info (name)
   Memcheck:Leak
   fun:malloc
   fun:G__savestring
   fun:G__memfunc_setup_imp
}
{
   CINT's function info (parameter)
   Memcheck:Leak
   fun:malloc
   fun:_ZN9G__paramsixEi
   fun:G__memfunc_setup_imp
}

{
   CINT's compiled function prototype
   Memcheck:Leak
   fun:malloc
   fun:G__make_ifunctable
}

{  
   CINT's function prototype
   Memcheck:Leak
   fun:malloc
   fun:G__readansiproto
}

{
   CINT's NameMap part1
   Memcheck:Leak
   fun:_Znw?
   fun:_ZN9__gnu_cxx13new_allocatorISt13_Rb_tree_nodeIiEE8allocateE?PKv
   fun:_ZNSt8_Rb_treeIiiSt9_IdentityIiESt4lessIiESaIiEE11_M_get_nodeEv
   fun:_ZNSt8_Rb_treeIiiSt9_IdentityIiESt4lessIiESaIiEE14_M_create_nodeERKi
   fun:_ZNSt8_Rb_treeIiiSt9_IdentityIiESt4lessIiESaIiEE10_M_insert_EPKSt18_Rb_tree_node_baseS8_RKi
   fun:_ZNSt8_Rb_treeIiiSt9_IdentityIiESt4lessIiESaIiEE16_M_insert_uniqueERKi
   fun:_ZNSt3setIiSt4lessIiESaIiEE6insertERKi
   fun:_ZN7NameMap6InsertEPKci
} 

{
   CINT's NameMap part2
   Memcheck:Leak
   fun:_Znw?
   fun:_ZN9__gnu_cxx13new_allocatorISt13_Rb_tree_nodeISt4pairIKPKcSt3setIiSt4lessIiESaIiEEEEE8allocateE?PKv
   fun:_ZNSt8_Rb_treeIPKcSt4pairIKS1_St3setIiSt4lessIiESaIiEEESt10_Select1stIS9_EN7NameMap15G__charptr_lessESaIS9_EE11_M_get_nodeEv
   fun:_ZNSt8_Rb_treeIPKcSt4pairIKS1_St3setIiSt4lessIiESaIiEEESt10_Select1stIS9_EN7NameMap15G__charptr_lessESaIS9_EE14_M_create_nodeERKS9_
   fun:_ZNSt8_Rb_treeIPKcSt4pairIKS1_St3setIiSt4lessIiESaIiEEESt10_Select1stIS9_EN7NameMap15G__charptr_lessESaIS9_EE10_M_insert_EPKSt18_Rb_tree_node_baseSI_RKS9_
   fun:_ZNSt8_Rb_treeIPKcSt4pairIKS1_St3setIiSt4lessIiESaIiEEESt10_Select1stIS9_EN7NameMap15G__charptr_lessESaIS9_EE16_M_insert_uniqueERKS9_
   fun:_ZNSt8_Rb_treeIPKcSt4pairIKS1_St3setIiSt4lessIiESaIiEEESt10_Select1stIS9_EN7NameMap15G__charptr_lessESaIS9_EE17_M_insert_unique_ESt23_Rb_tree_const_iteratorIS9_ERKS9_
   fun:_ZNSt3mapIPKcSt3setIiSt4lessIiESaIiEEN7NameMap15G__charptr_lessESaISt4pairIKS1_S6_EEE6insertESt17_Rb_tree_iteratorISB_ERKSB_
   fun:_ZNSt3mapIPKcSt3setIiSt4lessIiESaIiEEN7NameMap15G__charptr_lessESaISt4pairIKS1_S6_EEEixERSA_
   fun:_ZN7NameMap6InsertEPKci
}

{
   CINT's NameMap part3
   Memcheck:Leak
   fun:_Znw?
   fun:_ZN9__gnu_cxx13new_allocatorISt13_Rb_tree_nodeISt4pairIKPKcSt3setIiSt4lessIiESaIiEEEEE8allocateE?PKv
   fun:_ZNSt8_Rb_treeIPKcSt4pairIKS1_St3setIiSt4lessIiESaIiEEESt10_Select1stIS9_EN7NameMap15G__charptr_lessESaIS9_EE11_M_get_nodeEv
   fun:_ZNSt8_Rb_treeIPKcSt4pairIKS1_St3setIiSt4lessIiESaIiEEESt10_Select1stIS9_EN7NameMap15G__charptr_lessESaIS9_EE14_M_create_nodeERKS9_
   fun:*
   fun:*
   fun:_ZNSt3mapIPKcSt3setIiSt4lessIiESaIiEEN7NameMap15G__charptr_lessESaISt4pairIKS1_S6_EEE6insertESt17_Rb_tree_iteratorISB_ERKSB_
   fun:_ZNSt3mapIPKcSt3setIiSt4lessIiESaIiEEN7NameMap15G__charptr_lessESaISt4pairIKS1_S6_EEEixERSA_
   fun:_ZN7NameMap6InsertEPKci
}

{
   CINT's variable name
   Memcheck:Leak
   fun:malloc
   fun:G__savestring
   fun:_ZL16G__allocvariable8G__valuePS_P12G__var_arrayS2_iiPcS3_iRN4Cint19G__DataMemberHandleE
}

{
   CINT inheritance
   Memcheck:Leak
   fun:malloc
   fun:_ZN9G__heritsixEi
   fun:G__inheritance_setup
}

{
   CINT compiled global variable info
   Memcheck:Leak
   fun:calloc
   fun:G__malloc
   fun:*
   fun:*
   fun:*
   fun:*
   fun:G__getexpr
   fun:G__memvar_setup
   fun:_ZL20G__cpp_setup_global0v
}

######## ROOT TObject on heap

{
   TObject::TObject() uses uninitialized value
   Memcheck:Cond
   fun:_ZN7TObjectC1Ev
   ...
}

{
   TObject::TObject(const TObject&) uses uninitialized value
   Memcheck:Cond
   fun:_ZN7TObjectC1ERKS_
   ...
}

{
   gcc optimizer confuses valgrind on TObject::~TObject()
   Memcheck:Cond
   fun:_ZN7TObjectD1Ev
   ...
}

######### Misc

{
   TUnixSystem::Setenv, see its doc
   Memcheck:Leak
   fun:_Zna?
   fun:_ZN11TUnixSystem6SetenvEPKcS1_
}

{
   getpwuid() does a __nss_database_lookup which leaks
   Memcheck:Leak
   fun:malloc
   fun:nss_parse_service_list
   fun:__nss_database_lookup
   ...
   fun:getpwuid_r@@GLIBC_*
}

{
   getgrgid() does a __nss_database_lookup which leaks
   Memcheck:Leak
   fun:malloc
   fun:nss_parse_service_list
   fun:__nss_database_lookup
   obj:*
   obj:*
   fun:getgrgid_r@@GLIBC_*
}

######### X11 errors triggered by ROOT

{
   ROOT:X11 - GetWindowSize
   Memcheck:Param
   write(buf)
   fun:__write_nocancel
   obj:*/libX11.*
   obj:*/libX11.*
   fun:_XReply
   fun:XGetGeometry
   fun:_ZN5TGX1113GetWindowSizeEmRiS0_RjS1_
}
{
   ROOT:X11 - XFlush
   Memcheck:Param
   write(buf)
   fun:__write_nocancel
   obj:*/libX11.*
   obj:*/libX11.*
   fun:XFlush
   fun:_ZN7TCanvas5BuildEv
}
{
   ROOT:X11 - XDrawString
   Memcheck:Param
   write(buf)
   fun:__write_nocancel
   obj:*/libX11.*
   obj:*/libX11.*
   fun:XDrawString
   fun:_ZN8TGX11TTF10DrawStringEmmiiPKci
}
{
   ROOT:X11 - XPending
   Memcheck:Param
   write(buf)
   fun:__write_nocancel
   obj:*/libX11.*
   obj:*/libX11.*
   fun:_XEventsQueued
   fun:XPending
   fun:_ZN8TGClient15ProcessOneEventEv
}
{
   ROOT:X11 - XCheckTypedWindowEvent
   Memcheck:Param
   write(buf)
   fun:__write_nocancel
   obj:*/libX11.*
   obj:*/libX11.*
   fun:XCheckTypedWindowEvent
   fun:_ZN5TGX1110CheckEventEm11EGEventTypeR7Event_t
}
{
   ROOT:X11 - XPutImage
   Memcheck:Param
   writev(vector[...])
   fun:writev
   obj:*/libX11.*
   fun:_XSend
   obj:*/libX11.*
   fun:XPutImage
   fun:_ZN8TGX11TTF12RenderStringEiiN9TVirtualX9ETextModeE
}
{
   ROOT:X11 - XMoveResizeWindow
   Memcheck:Param
   write(buf)
   fun:__write_nocancel
   obj:*/libX11.*
   obj:*/libX11.*
   fun:XMoveResizeWindow
   fun:_ZN7TGFrame10MoveResizeEiijj
}
{
   ROOT:X11 - XSetTextProperty
   Memcheck:Param
   write(buf)
   fun:__write_nocancel
   obj:*/libX11.*
   obj:*/libX11.*
   fun:XChangeProperty
   fun:XSetTextProperty
   fun:_ZN5TGX1113SetWindowNameEmPc
}
{
   ROOT:X11 - XDrawLines
   Memcheck:Param
   write(buf)
   fun:__write_nocancel
   obj:*/libX11.*
   obj:*/libX11.*
   fun:XDrawLines
   fun:_ZN4TPad13PaintPolyLineEiPdS0_PKc
}
{
   ROOT:X11 - XDrawLines / _XFlushGCCache
   Memcheck:Param
   write(buf)
   fun:__write_nocancel
   obj:*/libX11.*
   obj:*/libX11.*
   fun:_XFlushGCCache
   fun:XDrawLines
   fun:_ZN4TPad13PaintFillAreaEiPdS0_PKc
}
{
   ROOT:X11 - XDrawLines / _XSend
   Memcheck:Param
   writev(vector[...])
   fun:writev
   obj:*/libX11.*
   fun:_XSend
   fun:XDrawLines
   fun:_ZN4TPad13PaintFillAreaEiPdS0_PKc
}

{
   ROOT:X11 - XQueryExtension 
   Memcheck:Param
   writev(vector[...])
   fun:writev
   obj:*/libxcb.*
   obj:*/libxcb.*
   fun:xcb_writev
   fun:_XSend
   fun:XQueryExtension
}


######### STAR's RTTI
{
   Memcheck:Free
   fun:realloc
   fun:_ZL13G__initstructR18G__FastAllocString
   fun:G__define_var
   fun:G__exec_statement
   fun:G__loadfile
   fun:G__include_file
   fun:G__exec_statement
   fun:G__loadfile
   fun:G__reloadfile
   fun:G__process_cmd
   fun:_ZN5TCint11ProcessLineEPKcPN12TInterpreter10EErrorCodeE
   fun:_ZN9StBFChain5SetupEi
   fun:_ZN9StBFChain8SetFlagsEPKc
   fun:_ZL26G__StBFChain_Cint_576_0_13P8G__valuePKcP8G__parami
   fun:_ZN4Cint19G__ExceptionWrapperEPFiP8G__valuePKcP8G__paramiES1_PcS5_i
   fun:G__execute_call
}
{
   Memcheck:Cond
   fun:ASN1_STRING_set
   fun:ASN1_mbstring_ncopy
   fun:ASN1_mbstring_copy
   fun:ASN1_STRING_to_UTF8
   obj:/usr/lib/libcrypto.so.1.0.0
   obj:/usr/lib/libcrypto.so.1.0.0
   fun:ASN1_item_ex_d2i
   obj:/usr/lib/libcrypto.so.1.0.0
   obj:/usr/lib/libcrypto.so.1.0.0
   fun:ASN1_item_ex_d2i
   obj:/usr/lib/libcrypto.so.1.0.0
   obj:/usr/lib/libcrypto.so.1.0.0
   fun:ASN1_item_ex_d2i
   fun:ASN1_item_d2i
   fun:d2i_X509
   fun:PEM_X509_INFO_read_bio
   fun:X509_load_cert_crl_file
   obj:/usr/lib/libcrypto.so.1.0.0
   fun:X509_LOOKUP_ctrl
   fun:X509_STORE_set_default_paths
   fun:SSL_CTX_set_default_verify_paths
   obj:/usr/lib/mysql/libmysqlclient.so.16.0.0
   fun:new_VioSSLConnectorFd
   fun:mysql_real_connect
}
{
   Memcheck:Cond
   fun:BN_bin2bn
   obj:/usr/lib/libcrypto.so.1.0.0
   obj:/usr/lib/libcrypto.so.1.0.0
   fun:DH_generate_key
   fun:ssl3_ctx_ctrl
   fun:SSL_CTX_ctrl
   obj:/usr/lib/mysql/libmysqlclient.so.16.0.0
   fun:new_VioSSLConnectorFd
   fun:mysql_real_connect
   fun:_ZN7MysqlDb9reConnectEv
   fun:_ZN7MysqlDb7ConnectEPKcS1_S1_S1_i
   fun:_ZN14StDbServerImpl11addDataBaseE8StDbType10StDbDomain
   fun:_ZN15StDbManagerImpl10findServerE8StDbType10StDbDomain
   fun:_ZN15StDbManagerImpl6findDbE8StDbType10StDbDomain
   fun:_ZN18StDbConfigNodeImpl9buildTreeEi
   fun:_ZN15StDbManagerImpl10initConfigE8StDbType10StDbDomainPKci
   fun:_ZN15StDbManagerImpl10initConfigEPKcS1_i
   fun:_ZN10StDbBroker10InitConfigEPKcRiPc
   fun:_ZN11St_db_Maker9OpenMySQLEPKc
   fun:_ZN11St_db_Maker4InitEv
   fun:_ZN7StMaker4InitEv
   fun:_ZN7StChain4InitEv
   fun:_ZN9StBFChain4InitEv
   fun:_ZL23G__StChain_Cint_572_0_6P8G__valuePKcP8G__parami
}
{
   Memcheck:Cond
   fun:BN_num_bits_word
   fun:BN_num_bits
   fun:BN_mod_exp_mont_consttime
   fun:BN_mod_exp_mont
   obj:/usr/lib/libcrypto.so.1.0.0
   obj:/usr/lib/libcrypto.so.1.0.0
   fun:DH_generate_key
   fun:ssl3_ctx_ctrl
   fun:SSL_CTX_ctrl
   obj:/usr/lib/mysql/libmysqlclient.so.16.0.0
   fun:new_VioSSLConnectorFd
   fun:mysql_real_connect
   fun:_ZN7MysqlDb9reConnectEv
   fun:_ZN7MysqlDb7ConnectEPKcS1_S1_S1_i
   fun:_ZN14StDbServerImpl11addDataBaseE8StDbType10StDbDomain
   fun:_ZN15StDbManagerImpl10findServerE8StDbType10StDbDomain
   fun:_ZN15StDbManagerImpl6findDbE8StDbType10StDbDomain
   fun:_ZN18StDbConfigNodeImpl9buildTreeEi
   fun:_ZN15StDbManagerImpl10initConfigE8StDbType10StDbDomainPKci
   fun:_ZN15StDbManagerImpl10initConfigEPKcS1_i
   fun:_ZN10StDbBroker10InitConfigEPKcRiPc
   fun:_ZN11St_db_Maker9OpenMySQLEPKc
   fun:_ZN11St_db_Maker4InitEv
   fun:_ZN7StMaker4InitEv
}
{
   Memcheck:Value4
   fun:BN_num_bits_word
   fun:BN_mod_exp_mont_consttime
   fun:BN_mod_exp_mont
   obj:/usr/lib/libcrypto.so.1.0.0
   obj:/usr/lib/libcrypto.so.1.0.0
   fun:DH_generate_key
   fun:ssl3_ctx_ctrl
   fun:SSL_CTX_ctrl
   obj:/usr/lib/mysql/libmysqlclient.so.16.0.0
   fun:new_VioSSLConnectorFd
   fun:mysql_real_connect
   fun:_ZN7MysqlDb9reConnectEv
   fun:_ZN7MysqlDb7ConnectEPKcS1_S1_S1_i
   fun:_ZN14StDbServerImpl11addDataBaseE8StDbType10StDbDomain
   fun:_ZN15StDbManagerImpl10findServerE8StDbType10StDbDomain
   fun:_ZN15StDbManagerImpl6findDbE8StDbType10StDbDomain
   fun:_ZN18StDbConfigNodeImpl9buildTreeEi
   fun:_ZN15StDbManagerImpl10initConfigE8StDbType10StDbDomainPKci
   fun:_ZN15StDbManagerImpl10initConfigEPKcS1_i
   fun:_ZN10StDbBroker10InitConfigEPKcRiPc
   fun:_ZN11St_db_Maker9OpenMySQLEPKc
   fun:_ZN11St_db_Maker4InitEv
   fun:_ZN7StMaker4InitEv
   fun:_ZN7StChain4InitEv
}
{
   Memcheck:Value4
   fun:BN_mod_exp_mont_consttime
   fun:BN_mod_exp_mont
   obj:/usr/lib/libcrypto.so.1.0.0
   obj:/usr/lib/libcrypto.so.1.0.0
   fun:DH_generate_key
   fun:ssl3_ctx_ctrl
   fun:SSL_CTX_ctrl
   obj:/usr/lib/mysql/libmysqlclient.so.16.0.0
   fun:new_VioSSLConnectorFd
   fun:mysql_real_connect
   fun:_ZN7MysqlDb9reConnectEv
   fun:_ZN7MysqlDb7ConnectEPKcS1_S1_S1_i
   fun:_ZN14StDbServerImpl11addDataBaseE8StDbType10StDbDomain
   fun:_ZN15StDbManagerImpl10findServerE8StDbType10StDbDomain
   fun:_ZN15StDbManagerImpl6findDbE8StDbType10StDbDomain
   fun:_ZN18StDbConfigNodeImpl9buildTreeEi
   fun:_ZN15StDbManagerImpl10initConfigE8StDbType10StDbDomainPKci
   fun:_ZN15StDbManagerImpl10initConfigEPKcS1_i
   fun:_ZN10StDbBroker10InitConfigEPKcRiPc
   fun:_ZN11St_db_Maker9OpenMySQLEPKc
   fun:_ZN11St_db_Maker4InitEv
   fun:_ZN7StMaker4InitEv
   fun:_ZN7StChain4InitEv
   fun:_ZN9StBFChain4InitEv
}
{
   Memcheck:Param
   write(buf)
   fun:__write_nocancel
   fun:BIO_write
   fun:ssl3_write_pending
   obj:/usr/lib/libssl.so.1.0.0
   fun:ssl3_write_bytes
   fun:ssl3_do_write
   fun:ssl3_client_hello
   fun:ssl3_connect
   fun:SSL_connect
   obj:/usr/lib/mysql/libmysqlclient.so.16.0.0
   fun:mysql_real_connect
   fun:_ZN7MysqlDb9reConnectEv
   fun:_ZN7MysqlDb7ConnectEPKcS1_S1_S1_i
   fun:_ZN14StDbServerImpl11addDataBaseE8StDbType10StDbDomain
   fun:_ZN15StDbManagerImpl10findServerE8StDbType10StDbDomain
   fun:_ZN15StDbManagerImpl6findDbE8StDbType10StDbDomain
   fun:_ZN18StDbConfigNodeImpl9buildTreeEi
   fun:_ZN15StDbManagerImpl10initConfigE8StDbType10StDbDomainPKci
   fun:_ZN15StDbManagerImpl10initConfigEPKcS1_i
   fun:_ZN10StDbBroker10InitConfigEPKcRiPc
   fun:_ZN11St_db_Maker9OpenMySQLEPKc
   fun:_ZN11St_db_Maker4InitEv
   fun:_ZN7StMaker4InitEv
   fun:_ZN7StChain4InitEv
}
{
   Memcheck:Cond
   fun:RSA_padding_add_PKCS1_type_2
   obj:/usr/lib/libcrypto.so.1.0.0
   fun:RSA_public_encrypt
   fun:ssl3_send_client_key_exchange
   fun:ssl3_connect
   fun:SSL_connect
   obj:/usr/lib/mysql/libmysqlclient.so.16.0.0
   fun:mysql_real_connect
   fun:_ZN7MysqlDb9reConnectEv
   fun:_ZN7MysqlDb7ConnectEPKcS1_S1_S1_i
   fun:_ZN14StDbServerImpl11addDataBaseE8StDbType10StDbDomain
   fun:_ZN15StDbManagerImpl10findServerE8StDbType10StDbDomain
   fun:_ZN15StDbManagerImpl6findDbE8StDbType10StDbDomain
   fun:_ZN18StDbConfigNodeImpl9buildTreeEi
   fun:_ZN15StDbManagerImpl10initConfigE8StDbType10StDbDomainPKci
   fun:_ZN15StDbManagerImpl10initConfigEPKcS1_i
   fun:_ZN10StDbBroker10InitConfigEPKcRiPc
   fun:_ZN11St_db_Maker9OpenMySQLEPKc
   fun:_ZN11St_db_Maker4InitEv
   fun:_ZN7StMaker4InitEv
   fun:_ZN7StChain4InitEv
   fun:_ZN9StBFChain4InitEv
   fun:_ZL23G__StChain_Cint_572_0_6P8G__valuePKcP8G__parami
   fun:_ZN4Cint19G__ExceptionWrapperEPFiP8G__valuePKcP8G__paramiES1_PcS5_i
}
{
   Memcheck:Cond
   fun:BN_bin2bn
   obj:/usr/lib/libcrypto.so.1.0.0
   fun:RSA_public_encrypt
   fun:ssl3_send_client_key_exchange
   fun:ssl3_connect
   fun:SSL_connect
   obj:/usr/lib/mysql/libmysqlclient.so.16.0.0
   fun:mysql_real_connect
   fun:_ZN7MysqlDb9reConnectEv
   fun:_ZN7MysqlDb7ConnectEPKcS1_S1_S1_i
   fun:_ZN14StDbServerImpl11addDataBaseE8StDbType10StDbDomain
   fun:_ZN15StDbManagerImpl10findServerE8StDbType10StDbDomain
   fun:_ZN15StDbManagerImpl6findDbE8StDbType10StDbDomain
   fun:_ZN18StDbConfigNodeImpl9buildTreeEi
   fun:_ZN15StDbManagerImpl10initConfigE8StDbType10StDbDomainPKci
   fun:_ZN15StDbManagerImpl10initConfigEPKcS1_i
   fun:_ZN10StDbBroker10InitConfigEPKcRiPc
   fun:_ZN11St_db_Maker9OpenMySQLEPKc
   fun:_ZN11St_db_Maker4InitEv
   fun:_ZN7StMaker4InitEv
   fun:_ZN7StChain4InitEv
   fun:_ZN9StBFChain4InitEv
   fun:_ZL23G__StChain_Cint_572_0_6P8G__valuePKcP8G__parami
   fun:_ZN4Cint19G__ExceptionWrapperEPFiP8G__valuePKcP8G__paramiES1_PcS5_i
}
{
   Memcheck:Cond
   fun:BN_ucmp
   obj:/usr/lib/libcrypto.so.1.0.0
   fun:RSA_public_encrypt
   fun:ssl3_send_client_key_exchange
   fun:ssl3_connect
   fun:SSL_connect
   obj:/usr/lib/mysql/libmysqlclient.so.16.0.0
   fun:mysql_real_connect
   fun:_ZN7MysqlDb9reConnectEv
   fun:_ZN7MysqlDb7ConnectEPKcS1_S1_S1_i
   fun:_ZN14StDbServerImpl11addDataBaseE8StDbType10StDbDomain
   fun:_ZN15StDbManagerImpl10findServerE8StDbType10StDbDomain
   fun:_ZN15StDbManagerImpl6findDbE8StDbType10StDbDomain
   fun:_ZN18StDbConfigNodeImpl9buildTreeEi
   fun:_ZN15StDbManagerImpl10initConfigE8StDbType10StDbDomainPKci
   fun:_ZN15StDbManagerImpl10initConfigEPKcS1_i
   fun:_ZN10StDbBroker10InitConfigEPKcRiPc
   fun:_ZN11St_db_Maker9OpenMySQLEPKc
   fun:_ZN11St_db_Maker4InitEv
   fun:_ZN7StMaker4InitEv
   fun:_ZN7StChain4InitEv
   fun:_ZN9StBFChain4InitEv
   fun:_ZL23G__StChain_Cint_572_0_6P8G__valuePKcP8G__parami
   fun:_ZN4Cint19G__ExceptionWrapperEPFiP8G__valuePKcP8G__paramiES1_PcS5_i
}
{
   Memcheck:Cond
   obj:/usr/lib/libcrypto.so.1.0.0
   fun:RSA_public_encrypt
   fun:ssl3_send_client_key_exchange
   fun:ssl3_connect
   fun:SSL_connect
   obj:/usr/lib/mysql/libmysqlclient.so.16.0.0
   fun:mysql_real_connect
   fun:_ZN7MysqlDb9reConnectEv
   fun:_ZN7MysqlDb7ConnectEPKcS1_S1_S1_i
   fun:_ZN14StDbServerImpl11addDataBaseE8StDbType10StDbDomain
   fun:_ZN15StDbManagerImpl10findServerE8StDbType10StDbDomain
   fun:_ZN15StDbManagerImpl6findDbE8StDbType10StDbDomain
   fun:_ZN18StDbConfigNodeImpl9buildTreeEi
   fun:_ZN15StDbManagerImpl10initConfigE8StDbType10StDbDomainPKci
   fun:_ZN15StDbManagerImpl10initConfigEPKcS1_i
   fun:_ZN10StDbBroker10InitConfigEPKcRiPc
   fun:_ZN11St_db_Maker9OpenMySQLEPKc
   fun:_ZN11St_db_Maker4InitEv
   fun:_ZN7StMaker4InitEv
   fun:_ZN7StChain4InitEv
   fun:_ZN9StBFChain4InitEv
   fun:_ZL23G__StChain_Cint_572_0_6P8G__valuePKcP8G__parami
   fun:_ZN4Cint19G__ExceptionWrapperEPFiP8G__valuePKcP8G__paramiES1_PcS5_i
   fun:G__execute_call
}
{
   Memcheck:Cond
   fun:BN_ucmp
   fun:BN_mod_exp_mont
   obj:/usr/lib/libcrypto.so.1.0.0
   fun:RSA_public_encrypt
   fun:ssl3_send_client_key_exchange
   fun:ssl3_connect
   fun:SSL_connect
   obj:/usr/lib/mysql/libmysqlclient.so.16.0.0
   fun:mysql_real_connect
   fun:_ZN7MysqlDb9reConnectEv
   fun:_ZN7MysqlDb7ConnectEPKcS1_S1_S1_i
   fun:_ZN14StDbServerImpl11addDataBaseE8StDbType10StDbDomain
   fun:_ZN15StDbManagerImpl10findServerE8StDbType10StDbDomain
   fun:_ZN15StDbManagerImpl6findDbE8StDbType10StDbDomain
   fun:_ZN18StDbConfigNodeImpl9buildTreeEi
   fun:_ZN15StDbManagerImpl10initConfigE8StDbType10StDbDomainPKci
   fun:_ZN15StDbManagerImpl10initConfigEPKcS1_i
   fun:_ZN10StDbBroker10InitConfigEPKcRiPc
   fun:_ZN11St_db_Maker9OpenMySQLEPKc
   fun:_ZN11St_db_Maker4InitEv
   fun:_ZN7StMaker4InitEv
   fun:_ZN7StChain4InitEv
   fun:_ZN9StBFChain4InitEv
   fun:_ZL23G__StChain_Cint_572_0_6P8G__valuePKcP8G__parami
}
{
   Memcheck:Cond
   fun:BN_mod_exp_mont
   obj:/usr/lib/libcrypto.so.1.0.0
   fun:RSA_public_encrypt
   fun:ssl3_send_client_key_exchange
   fun:ssl3_connect
   fun:SSL_connect
   obj:/usr/lib/mysql/libmysqlclient.so.16.0.0
   fun:mysql_real_connect
   fun:_ZN7MysqlDb9reConnectEv
   fun:_ZN7MysqlDb7ConnectEPKcS1_S1_S1_i
   fun:_ZN14StDbServerImpl11addDataBaseE8StDbType10StDbDomain
   fun:_ZN15StDbManagerImpl10findServerE8StDbType10StDbDomain
   fun:_ZN15StDbManagerImpl6findDbE8StDbType10StDbDomain
   fun:_ZN18StDbConfigNodeImpl9buildTreeEi
   fun:_ZN15StDbManagerImpl10initConfigE8StDbType10StDbDomainPKci
   fun:_ZN15StDbManagerImpl10initConfigEPKcS1_i
   fun:_ZN10StDbBroker10InitConfigEPKcRiPc
   fun:_ZN11St_db_Maker9OpenMySQLEPKc
   fun:_ZN11St_db_Maker4InitEv
   fun:_ZN7StMaker4InitEv
   fun:_ZN7StChain4InitEv
   fun:_ZN9StBFChain4InitEv
   fun:_ZL23G__StChain_Cint_572_0_6P8G__valuePKcP8G__parami
   fun:_ZN4Cint19G__ExceptionWrapperEPFiP8G__valuePKcP8G__paramiES1_PcS5_i
}
{
   Memcheck:Value4
   fun:bn_mul_mont
}
{
   Memcheck:Cond
   fun:BN_mod_mul_montgomery
   fun:BN_mod_exp_mont
   obj:/usr/lib/libcrypto.so.1.0.0
   fun:RSA_public_encrypt
   fun:ssl3_send_client_key_exchange
   fun:ssl3_connect
   fun:SSL_connect
   obj:/usr/lib/mysql/libmysqlclient.so.16.0.0
   fun:mysql_real_connect
   fun:_ZN7MysqlDb9reConnectEv
   fun:_ZN7MysqlDb7ConnectEPKcS1_S1_S1_i
   fun:_ZN14StDbServerImpl11addDataBaseE8StDbType10StDbDomain
   fun:_ZN15StDbManagerImpl10findServerE8StDbType10StDbDomain
   fun:_ZN15StDbManagerImpl6findDbE8StDbType10StDbDomain
   fun:_ZN18StDbConfigNodeImpl9buildTreeEi
   fun:_ZN15StDbManagerImpl10initConfigE8StDbType10StDbDomainPKci
   fun:_ZN15StDbManagerImpl10initConfigEPKcS1_i
   fun:_ZN10StDbBroker10InitConfigEPKcRiPc
   fun:_ZN11St_db_Maker9OpenMySQLEPKc
   fun:_ZN11St_db_Maker4InitEv
   fun:_ZN7StMaker4InitEv
   fun:_ZN7StChain4InitEv
   fun:_ZN9StBFChain4InitEv
   fun:_ZL23G__StChain_Cint_572_0_6P8G__valuePKcP8G__parami
}
{
   Memcheck:Cond
   obj:/usr/lib/libcrypto.so.1.0.0
   fun:BN_from_montgomery
   fun:BN_mod_exp_mont
   obj:/usr/lib/libcrypto.so.1.0.0
   fun:RSA_public_encrypt
   fun:ssl3_send_client_key_exchange
   fun:ssl3_connect
   fun:SSL_connect
   obj:/usr/lib/mysql/libmysqlclient.so.16.0.0
   fun:mysql_real_connect
   fun:_ZN7MysqlDb9reConnectEv
   fun:_ZN7MysqlDb7ConnectEPKcS1_S1_S1_i
   fun:_ZN14StDbServerImpl11addDataBaseE8StDbType10StDbDomain
   fun:_ZN15StDbManagerImpl10findServerE8StDbType10StDbDomain
   fun:_ZN15StDbManagerImpl6findDbE8StDbType10StDbDomain
   fun:_ZN18StDbConfigNodeImpl9buildTreeEi
   fun:_ZN15StDbManagerImpl10initConfigE8StDbType10StDbDomainPKci
   fun:_ZN15StDbManagerImpl10initConfigEPKcS1_i
   fun:_ZN10StDbBroker10InitConfigEPKcRiPc
   fun:_ZN11St_db_Maker9OpenMySQLEPKc
   fun:_ZN11St_db_Maker4InitEv
   fun:_ZN7StMaker4InitEv
   fun:_ZN7StChain4InitEv
   fun:_ZN9StBFChain4InitEv
}
{
   Memcheck:Value4
   obj:/usr/lib/libcrypto.so.1.0.0
   fun:BN_from_montgomery
   fun:BN_mod_exp_mont
   obj:/usr/lib/libcrypto.so.1.0.0
   fun:RSA_public_encrypt
   fun:ssl3_send_client_key_exchange
   fun:ssl3_connect
   fun:SSL_connect
   obj:/usr/lib/mysql/libmysqlclient.so.16.0.0
   fun:mysql_real_connect
   fun:_ZN7MysqlDb9reConnectEv
   fun:_ZN7MysqlDb7ConnectEPKcS1_S1_S1_i
   fun:_ZN14StDbServerImpl11addDataBaseE8StDbType10StDbDomain
   fun:_ZN15StDbManagerImpl10findServerE8StDbType10StDbDomain
   fun:_ZN15StDbManagerImpl6findDbE8StDbType10StDbDomain
   fun:_ZN18StDbConfigNodeImpl9buildTreeEi
   fun:_ZN15StDbManagerImpl10initConfigE8StDbType10StDbDomainPKci
   fun:_ZN15StDbManagerImpl10initConfigEPKcS1_i
   fun:_ZN10StDbBroker10InitConfigEPKcRiPc
   fun:_ZN11St_db_Maker9OpenMySQLEPKc
   fun:_ZN11St_db_Maker4InitEv
   fun:_ZN7StMaker4InitEv
   fun:_ZN7StChain4InitEv
   fun:_ZN9StBFChain4InitEv
}
{
   Memcheck:Cond
   fun:BN_num_bits_word
   fun:BN_num_bits
   obj:/usr/lib/libcrypto.so.1.0.0
   fun:RSA_public_encrypt
   fun:ssl3_send_client_key_exchange
   fun:ssl3_connect
   fun:SSL_connect
   obj:/usr/lib/mysql/libmysqlclient.so.16.0.0
   fun:mysql_real_connect
   fun:_ZN7MysqlDb9reConnectEv
   fun:_ZN7MysqlDb7ConnectEPKcS1_S1_S1_i
   fun:_ZN14StDbServerImpl11addDataBaseE8StDbType10StDbDomain
   fun:_ZN15StDbManagerImpl10findServerE8StDbType10StDbDomain
   fun:_ZN15StDbManagerImpl6findDbE8StDbType10StDbDomain
   fun:_ZN18StDbConfigNodeImpl9buildTreeEi
   fun:_ZN15StDbManagerImpl10initConfigE8StDbType10StDbDomainPKci
   fun:_ZN15StDbManagerImpl10initConfigEPKcS1_i
   fun:_ZN10StDbBroker10InitConfigEPKcRiPc
   fun:_ZN11St_db_Maker9OpenMySQLEPKc
   fun:_ZN11St_db_Maker4InitEv
   fun:_ZN7StMaker4InitEv
   fun:_ZN7StChain4InitEv
   fun:_ZN9StBFChain4InitEv
   fun:_ZL23G__StChain_Cint_572_0_6P8G__valuePKcP8G__parami
}
{
   Memcheck:Value4
   fun:BN_num_bits_word
   obj:/usr/lib/libcrypto.so.1.0.0
   fun:RSA_public_encrypt
   fun:ssl3_send_client_key_exchange
   fun:ssl3_connect
   fun:SSL_connect
   obj:/usr/lib/mysql/libmysqlclient.so.16.0.0
   fun:mysql_real_connect
   fun:_ZN7MysqlDb9reConnectEv
   fun:_ZN7MysqlDb7ConnectEPKcS1_S1_S1_i
   fun:_ZN14StDbServerImpl11addDataBaseE8StDbType10StDbDomain
   fun:_ZN15StDbManagerImpl10findServerE8StDbType10StDbDomain
   fun:_ZN15StDbManagerImpl6findDbE8StDbType10StDbDomain
   fun:_ZN18StDbConfigNodeImpl9buildTreeEi
   fun:_ZN15StDbManagerImpl10initConfigE8StDbType10StDbDomainPKci
   fun:_ZN15StDbManagerImpl10initConfigEPKcS1_i
   fun:_ZN10StDbBroker10InitConfigEPKcRiPc
   fun:_ZN11St_db_Maker9OpenMySQLEPKc
   fun:_ZN11St_db_Maker4InitEv
   fun:_ZN7StMaker4InitEv
   fun:_ZN7StChain4InitEv
   fun:_ZN9StBFChain4InitEv
   fun:_ZL23G__StChain_Cint_572_0_6P8G__valuePKcP8G__parami
   fun:_ZN4Cint19G__ExceptionWrapperEPFiP8G__valuePKcP8G__paramiES1_PcS5_i
}
{
   Memcheck:Cond
   fun:BN_num_bits_word
   fun:BN_num_bits
   fun:BN_bn2bin
   obj:/usr/lib/libcrypto.so.1.0.0
   fun:RSA_public_encrypt
   fun:ssl3_send_client_key_exchange
   fun:ssl3_connect
   fun:SSL_connect
   obj:/usr/lib/mysql/libmysqlclient.so.16.0.0
   fun:mysql_real_connect
   fun:_ZN7MysqlDb9reConnectEv
   fun:_ZN7MysqlDb7ConnectEPKcS1_S1_S1_i
   fun:_ZN14StDbServerImpl11addDataBaseE8StDbType10StDbDomain
   fun:_ZN15StDbManagerImpl10findServerE8StDbType10StDbDomain
   fun:_ZN15StDbManagerImpl6findDbE8StDbType10StDbDomain
   fun:_ZN18StDbConfigNodeImpl9buildTreeEi
   fun:_ZN15StDbManagerImpl10initConfigE8StDbType10StDbDomainPKci
   fun:_ZN15StDbManagerImpl10initConfigEPKcS1_i
   fun:_ZN10StDbBroker10InitConfigEPKcRiPc
   fun:_ZN11St_db_Maker9OpenMySQLEPKc
   fun:_ZN11St_db_Maker4InitEv
   fun:_ZN7StMaker4InitEv
   fun:_ZN7StChain4InitEv
   fun:_ZN9StBFChain4InitEv
}
{
   Memcheck:Value4
   fun:BN_num_bits_word
   fun:BN_bn2bin
   obj:/usr/lib/libcrypto.so.1.0.0
   fun:RSA_public_encrypt
   fun:ssl3_send_client_key_exchange
   fun:ssl3_connect
   fun:SSL_connect
   obj:/usr/lib/mysql/libmysqlclient.so.16.0.0
   fun:mysql_real_connect
   fun:_ZN7MysqlDb9reConnectEv
   fun:_ZN7MysqlDb7ConnectEPKcS1_S1_S1_i
   fun:_ZN14StDbServerImpl11addDataBaseE8StDbType10StDbDomain
   fun:_ZN15StDbManagerImpl10findServerE8StDbType10StDbDomain
   fun:_ZN15StDbManagerImpl6findDbE8StDbType10StDbDomain
   fun:_ZN18StDbConfigNodeImpl9buildTreeEi
   fun:_ZN15StDbManagerImpl10initConfigE8StDbType10StDbDomainPKci
   fun:_ZN15StDbManagerImpl10initConfigEPKcS1_i
   fun:_ZN10StDbBroker10InitConfigEPKcRiPc
   fun:_ZN11St_db_Maker9OpenMySQLEPKc
   fun:_ZN11St_db_Maker4InitEv
   fun:_ZN7StMaker4InitEv
   fun:_ZN7StChain4InitEv
   fun:_ZN9StBFChain4InitEv
   fun:_ZL23G__StChain_Cint_572_0_6P8G__valuePKcP8G__parami
}
{
   Memcheck:Value4
   obj:/usr/lib/libcrypto.so.1.0.0
}
{
   Memcheck:Param
   write(buf)
   fun:__write_nocancel
   fun:BIO_write
   obj:/usr/lib/libcrypto.so.1.0.0
   fun:BIO_ctrl
   fun:ssl3_connect
   fun:SSL_connect
   obj:/usr/lib/mysql/libmysqlclient.so.16.0.0
   fun:mysql_real_connect
   fun:_ZN7MysqlDb9reConnectEv
   fun:_ZN7MysqlDb7ConnectEPKcS1_S1_S1_i
   fun:_ZN14StDbServerImpl11addDataBaseE8StDbType10StDbDomain
   fun:_ZN15StDbManagerImpl10findServerE8StDbType10StDbDomain
   fun:_ZN15StDbManagerImpl6findDbE8StDbType10StDbDomain
   fun:_ZN18StDbConfigNodeImpl9buildTreeEi
   fun:_ZN15StDbManagerImpl10initConfigE8StDbType10StDbDomainPKci
   fun:_ZN15StDbManagerImpl10initConfigEPKcS1_i
   fun:_ZN10StDbBroker10InitConfigEPKcRiPc
   fun:_ZN11St_db_Maker9OpenMySQLEPKc
   fun:_ZN11St_db_Maker4InitEv
   fun:_ZN7StMaker4InitEv
   fun:_ZN7StChain4InitEv
   fun:_ZN9StBFChain4InitEv
   fun:_ZL23G__StChain_Cint_572_0_6P8G__valuePKcP8G__parami
   fun:_ZN4Cint19G__ExceptionWrapperEPFiP8G__valuePKcP8G__paramiES1_PcS5_i
}
{
   Memcheck:Cond
   fun:ssl3_read_bytes
   fun:ssl3_get_message
   fun:ssl3_get_finished
   fun:ssl3_connect
   fun:SSL_connect
   obj:/usr/lib/mysql/libmysqlclient.so.16.0.0
   fun:mysql_real_connect
   fun:_ZN7MysqlDb9reConnectEv
   fun:_ZN7MysqlDb7ConnectEPKcS1_S1_S1_i
   fun:_ZN14StDbServerImpl11addDataBaseE8StDbType10StDbDomain
   fun:_ZN15StDbManagerImpl10findServerE8StDbType10StDbDomain
   fun:_ZN15StDbManagerImpl6findDbE8StDbType10StDbDomain
   fun:_ZN18StDbConfigNodeImpl9buildTreeEi
   fun:_ZN15StDbManagerImpl10initConfigE8StDbType10StDbDomainPKci
   fun:_ZN15StDbManagerImpl10initConfigEPKcS1_i
   fun:_ZN10StDbBroker10InitConfigEPKcRiPc
   fun:_ZN11St_db_Maker9OpenMySQLEPKc
   fun:_ZN11St_db_Maker4InitEv
   fun:_ZN7StMaker4InitEv
   fun:_ZN7StChain4InitEv
   fun:_ZN9StBFChain4InitEv
   fun:_ZL23G__StChain_Cint_572_0_6P8G__valuePKcP8G__parami
   fun:_ZN4Cint19G__ExceptionWrapperEPFiP8G__valuePKcP8G__paramiES1_PcS5_i
   fun:G__execute_call
}
{
   Memcheck:Cond
   fun:ssl3_cbc_copy_mac
   fun:ssl3_read_bytes
   fun:ssl3_get_message
   fun:ssl3_get_finished
   fun:ssl3_connect
   fun:SSL_connect
   obj:/usr/lib/mysql/libmysqlclient.so.16.0.0
   fun:mysql_real_connect
   fun:_ZN7MysqlDb9reConnectEv
   fun:_ZN7MysqlDb7ConnectEPKcS1_S1_S1_i
   fun:_ZN14StDbServerImpl11addDataBaseE8StDbType10StDbDomain
   fun:_ZN15StDbManagerImpl10findServerE8StDbType10StDbDomain
   fun:_ZN15StDbManagerImpl6findDbE8StDbType10StDbDomain
   fun:_ZN18StDbConfigNodeImpl9buildTreeEi
   fun:_ZN15StDbManagerImpl10initConfigE8StDbType10StDbDomainPKci
   fun:_ZN15StDbManagerImpl10initConfigEPKcS1_i
   fun:_ZN10StDbBroker10InitConfigEPKcRiPc
   fun:_ZN11St_db_Maker9OpenMySQLEPKc
   fun:_ZN11St_db_Maker4InitEv
   fun:_ZN7StMaker4InitEv
   fun:_ZN7StChain4InitEv
   fun:_ZN9StBFChain4InitEv
   fun:_ZL23G__StChain_Cint_572_0_6P8G__valuePKcP8G__parami
   fun:_ZN4Cint19G__ExceptionWrapperEPFiP8G__valuePKcP8G__paramiES1_PcS5_i
}
{
   Memcheck:Value4
   fun:ssl3_cbc_copy_mac
   fun:ssl3_read_bytes
   fun:ssl3_get_message
   fun:ssl3_get_finished
   fun:ssl3_connect
   fun:SSL_connect
   obj:/usr/lib/mysql/libmysqlclient.so.16.0.0
   fun:mysql_real_connect
   fun:_ZN7MysqlDb9reConnectEv
   fun:_ZN7MysqlDb7ConnectEPKcS1_S1_S1_i
   fun:_ZN14StDbServerImpl11addDataBaseE8StDbType10StDbDomain
   fun:_ZN15StDbManagerImpl10findServerE8StDbType10StDbDomain
   fun:_ZN15StDbManagerImpl6findDbE8StDbType10StDbDomain
   fun:_ZN18StDbConfigNodeImpl9buildTreeEi
   fun:_ZN15StDbManagerImpl10initConfigE8StDbType10StDbDomainPKci
   fun:_ZN15StDbManagerImpl10initConfigEPKcS1_i
   fun:_ZN10StDbBroker10InitConfigEPKcRiPc
   fun:_ZN11St_db_Maker9OpenMySQLEPKc
   fun:_ZN11St_db_Maker4InitEv
   fun:_ZN7StMaker4InitEv
   fun:_ZN7StChain4InitEv
   fun:_ZN9StBFChain4InitEv
   fun:_ZL23G__StChain_Cint_572_0_6P8G__valuePKcP8G__parami
   fun:_ZN4Cint19G__ExceptionWrapperEPFiP8G__valuePKcP8G__paramiES1_PcS5_i
}
{
   Memcheck:Cond
   fun:ssl3_cbc_digest_record
   fun:tls1_mac
   fun:ssl3_read_bytes
   fun:ssl3_get_message
   fun:ssl3_get_finished
   fun:ssl3_connect
   fun:SSL_connect
   obj:/usr/lib/mysql/libmysqlclient.so.16.0.0
   fun:mysql_real_connect
   fun:_ZN7MysqlDb9reConnectEv
   fun:_ZN7MysqlDb7ConnectEPKcS1_S1_S1_i
   fun:_ZN14StDbServerImpl11addDataBaseE8StDbType10StDbDomain
   fun:_ZN15StDbManagerImpl10findServerE8StDbType10StDbDomain
   fun:_ZN15StDbManagerImpl6findDbE8StDbType10StDbDomain
   fun:_ZN18StDbConfigNodeImpl9buildTreeEi
   fun:_ZN15StDbManagerImpl10initConfigE8StDbType10StDbDomainPKci
   fun:_ZN15StDbManagerImpl10initConfigEPKcS1_i
   fun:_ZN10StDbBroker10InitConfigEPKcRiPc
   fun:_ZN11St_db_Maker9OpenMySQLEPKc
   fun:_ZN11St_db_Maker4InitEv
   fun:_ZN7StMaker4InitEv
   fun:_ZN7StChain4InitEv
   fun:_ZN9StBFChain4InitEv
   fun:_ZL23G__StChain_Cint_572_0_6P8G__valuePKcP8G__parami
}
{
   Memcheck:Cond
   fun:memcpy
   fun:ssl3_read_bytes
   fun:ssl3_get_message
   fun:ssl3_get_finished
   fun:ssl3_connect
   fun:SSL_connect
   obj:/usr/lib/mysql/libmysqlclient.so.16.0.0
   fun:mysql_real_connect
   fun:_ZN7MysqlDb9reConnectEv
   fun:_ZN7MysqlDb7ConnectEPKcS1_S1_S1_i
   fun:_ZN14StDbServerImpl11addDataBaseE8StDbType10StDbDomain
   fun:_ZN15StDbManagerImpl10findServerE8StDbType10StDbDomain
   fun:_ZN15StDbManagerImpl6findDbE8StDbType10StDbDomain
   fun:_ZN18StDbConfigNodeImpl9buildTreeEi
   fun:_ZN15StDbManagerImpl10initConfigE8StDbType10StDbDomainPKci
   fun:_ZN15StDbManagerImpl10initConfigEPKcS1_i
   fun:_ZN10StDbBroker10InitConfigEPKcRiPc
   fun:_ZN11St_db_Maker9OpenMySQLEPKc
   fun:_ZN11St_db_Maker4InitEv
   fun:_ZN7StMaker4InitEv
   fun:_ZN7StChain4InitEv
   fun:_ZN9StBFChain4InitEv
   fun:_ZL23G__StChain_Cint_572_0_6P8G__valuePKcP8G__parami
   fun:_ZN4Cint19G__ExceptionWrapperEPFiP8G__valuePKcP8G__paramiES1_PcS5_i
}
{
   Memcheck:Cond
   fun:ssl3_get_message
   fun:ssl3_get_finished
   fun:ssl3_connect
   fun:SSL_connect
   obj:/usr/lib/mysql/libmysqlclient.so.16.0.0
   fun:mysql_real_connect
   fun:_ZN7MysqlDb9reConnectEv
   fun:_ZN7MysqlDb7ConnectEPKcS1_S1_S1_i
   fun:_ZN14StDbServerImpl11addDataBaseE8StDbType10StDbDomain
   fun:_ZN15StDbManagerImpl10findServerE8StDbType10StDbDomain
   fun:_ZN15StDbManagerImpl6findDbE8StDbType10StDbDomain
   fun:_ZN18StDbConfigNodeImpl9buildTreeEi
   fun:_ZN15StDbManagerImpl10initConfigE8StDbType10StDbDomainPKci
   fun:_ZN15StDbManagerImpl10initConfigEPKcS1_i
   fun:_ZN10StDbBroker10InitConfigEPKcRiPc
   fun:_ZN11St_db_Maker9OpenMySQLEPKc
   fun:_ZN11St_db_Maker4InitEv
   fun:_ZN7StMaker4InitEv
   fun:_ZN7StChain4InitEv
   fun:_ZN9StBFChain4InitEv
   fun:_ZL23G__StChain_Cint_572_0_6P8G__valuePKcP8G__parami
   fun:_ZN4Cint19G__ExceptionWrapperEPFiP8G__valuePKcP8G__paramiES1_PcS5_i
   fun:G__execute_call
}
{
   Memcheck:Cond
   fun:BUF_MEM_grow_clean
   fun:ssl3_get_message
   fun:ssl3_get_finished
   fun:ssl3_connect
   fun:SSL_connect
   obj:/usr/lib/mysql/libmysqlclient.so.16.0.0
   fun:mysql_real_connect
   fun:_ZN7MysqlDb9reConnectEv
   fun:_ZN7MysqlDb7ConnectEPKcS1_S1_S1_i
   fun:_ZN14StDbServerImpl11addDataBaseE8StDbType10StDbDomain
   fun:_ZN15StDbManagerImpl10findServerE8StDbType10StDbDomain
   fun:_ZN15StDbManagerImpl6findDbE8StDbType10StDbDomain
   fun:_ZN18StDbConfigNodeImpl9buildTreeEi
   fun:_ZN15StDbManagerImpl10initConfigE8StDbType10StDbDomainPKci
   fun:_ZN15StDbManagerImpl10initConfigEPKcS1_i
   fun:_ZN10StDbBroker10InitConfigEPKcRiPc
   fun:_ZN11St_db_Maker9OpenMySQLEPKc
   fun:_ZN11St_db_Maker4InitEv
   fun:_ZN7StMaker4InitEv
   fun:_ZN7StChain4InitEv
   fun:_ZN9StBFChain4InitEv
   fun:_ZL23G__StChain_Cint_572_0_6P8G__valuePKcP8G__parami
   fun:_ZN4Cint19G__ExceptionWrapperEPFiP8G__valuePKcP8G__paramiES1_PcS5_i
   fun:G__execute_call
}
{
   Memcheck:Cond
   fun:memset
   fun:BUF_MEM_grow_clean
   fun:ssl3_get_message
   fun:ssl3_get_finished
   fun:ssl3_connect
   fun:SSL_connect
   obj:/usr/lib/mysql/libmysqlclient.so.16.0.0
   fun:mysql_real_connect
   fun:_ZN7MysqlDb9reConnectEv
   fun:_ZN7MysqlDb7ConnectEPKcS1_S1_S1_i
   fun:_ZN14StDbServerImpl11addDataBaseE8StDbType10StDbDomain
   fun:_ZN15StDbManagerImpl10findServerE8StDbType10StDbDomain
   fun:_ZN15StDbManagerImpl6findDbE8StDbType10StDbDomain
   fun:_ZN18StDbConfigNodeImpl9buildTreeEi
   fun:_ZN15StDbManagerImpl10initConfigE8StDbType10StDbDomainPKci
   fun:_ZN15StDbManagerImpl10initConfigEPKcS1_i
   fun:_ZN10StDbBroker10InitConfigEPKcRiPc
   fun:_ZN11St_db_Maker9OpenMySQLEPKc
   fun:_ZN11St_db_Maker4InitEv
   fun:_ZN7StMaker4InitEv
   fun:_ZN7StChain4InitEv
   fun:_ZN9StBFChain4InitEv
   fun:_ZL23G__StChain_Cint_572_0_6P8G__valuePKcP8G__parami
   fun:_ZN4Cint19G__ExceptionWrapperEPFiP8G__valuePKcP8G__paramiES1_PcS5_i
}
{
   Memcheck:Value4
   fun:memset
   fun:BUF_MEM_grow_clean
   fun:ssl3_get_message
   fun:ssl3_get_finished
   fun:ssl3_connect
   fun:SSL_connect
   obj:/usr/lib/mysql/libmysqlclient.so.16.0.0
   fun:mysql_real_connect
   fun:_ZN7MysqlDb9reConnectEv
   fun:_ZN7MysqlDb7ConnectEPKcS1_S1_S1_i
   fun:_ZN14StDbServerImpl11addDataBaseE8StDbType10StDbDomain
   fun:_ZN15StDbManagerImpl10findServerE8StDbType10StDbDomain
   fun:_ZN15StDbManagerImpl6findDbE8StDbType10StDbDomain
   fun:_ZN18StDbConfigNodeImpl9buildTreeEi
   fun:_ZN15StDbManagerImpl10initConfigE8StDbType10StDbDomainPKci
   fun:_ZN15StDbManagerImpl10initConfigEPKcS1_i
   fun:_ZN10StDbBroker10InitConfigEPKcRiPc
   fun:_ZN11St_db_Maker9OpenMySQLEPKc
   fun:_ZN11St_db_Maker4InitEv
   fun:_ZN7StMaker4InitEv
   fun:_ZN7StChain4InitEv
   fun:_ZN9StBFChain4InitEv
   fun:_ZL23G__StChain_Cint_572_0_6P8G__valuePKcP8G__parami
   fun:_ZN4Cint19G__ExceptionWrapperEPFiP8G__valuePKcP8G__paramiES1_PcS5_i
}
{
   Memcheck:Value4
   fun:memcpy
   fun:ssl3_read_bytes
   fun:ssl3_get_message
   fun:ssl3_get_finished
   fun:ssl3_connect
   fun:SSL_connect
   obj:/usr/lib/mysql/libmysqlclient.so.16.0.0
   fun:mysql_real_connect
   fun:_ZN7MysqlDb9reConnectEv
   fun:_ZN7MysqlDb7ConnectEPKcS1_S1_S1_i
   fun:_ZN14StDbServerImpl11addDataBaseE8StDbType10StDbDomain
   fun:_ZN15StDbManagerImpl10findServerE8StDbType10StDbDomain
   fun:_ZN15StDbManagerImpl6findDbE8StDbType10StDbDomain
   fun:_ZN18StDbConfigNodeImpl9buildTreeEi
   fun:_ZN15StDbManagerImpl10initConfigE8StDbType10StDbDomainPKci
   fun:_ZN15StDbManagerImpl10initConfigEPKcS1_i
   fun:_ZN10StDbBroker10InitConfigEPKcRiPc
   fun:_ZN11St_db_Maker9OpenMySQLEPKc
   fun:_ZN11St_db_Maker4InitEv
   fun:_ZN7StMaker4InitEv
   fun:_ZN7StChain4InitEv
   fun:_ZN9StBFChain4InitEv
   fun:_ZL23G__StChain_Cint_572_0_6P8G__valuePKcP8G__parami
   fun:_ZN4Cint19G__ExceptionWrapperEPFiP8G__valuePKcP8G__paramiES1_PcS5_i
}
{
   Memcheck:Cond
   fun:MD5_Update
   obj:/usr/lib/libcrypto.so.1.0.0
   fun:EVP_DigestUpdate
   fun:ssl3_finish_mac
   fun:ssl3_get_message
   fun:ssl3_get_finished
   fun:ssl3_connect
   fun:SSL_connect
   obj:/usr/lib/mysql/libmysqlclient.so.16.0.0
   fun:mysql_real_connect
   fun:_ZN7MysqlDb9reConnectEv
   fun:_ZN7MysqlDb7ConnectEPKcS1_S1_S1_i
   fun:_ZN14StDbServerImpl11addDataBaseE8StDbType10StDbDomain
   fun:_ZN15StDbManagerImpl10findServerE8StDbType10StDbDomain
   fun:_ZN15StDbManagerImpl6findDbE8StDbType10StDbDomain
   fun:_ZN18StDbConfigNodeImpl9buildTreeEi
   fun:_ZN15StDbManagerImpl10initConfigE8StDbType10StDbDomainPKci
   fun:_ZN15StDbManagerImpl10initConfigEPKcS1_i
   fun:_ZN10StDbBroker10InitConfigEPKcRiPc
   fun:_ZN11St_db_Maker9OpenMySQLEPKc
   fun:_ZN11St_db_Maker4InitEv
   fun:_ZN7StMaker4InitEv
   fun:_ZN7StChain4InitEv
   fun:_ZN9StBFChain4InitEv
}
{
   Memcheck:Cond
   fun:memcpy
   fun:MD5_Update
   obj:/usr/lib/libcrypto.so.1.0.0
   fun:EVP_DigestUpdate
   fun:ssl3_finish_mac
   fun:ssl3_get_message
   fun:ssl3_get_finished
   fun:ssl3_connect
   fun:SSL_connect
   obj:/usr/lib/mysql/libmysqlclient.so.16.0.0
   fun:mysql_real_connect
   fun:_ZN7MysqlDb9reConnectEv
   fun:_ZN7MysqlDb7ConnectEPKcS1_S1_S1_i
   fun:_ZN14StDbServerImpl11addDataBaseE8StDbType10StDbDomain
   fun:_ZN15StDbManagerImpl10findServerE8StDbType10StDbDomain
   fun:_ZN15StDbManagerImpl6findDbE8StDbType10StDbDomain
   fun:_ZN18StDbConfigNodeImpl9buildTreeEi
   fun:_ZN15StDbManagerImpl10initConfigE8StDbType10StDbDomainPKci
   fun:_ZN15StDbManagerImpl10initConfigEPKcS1_i
   fun:_ZN10StDbBroker10InitConfigEPKcRiPc
   fun:_ZN11St_db_Maker9OpenMySQLEPKc
   fun:_ZN11St_db_Maker4InitEv
   fun:_ZN7StMaker4InitEv
   fun:_ZN7StChain4InitEv
}
{
   Memcheck:Cond
   fun:SHA1_Update
   obj:/usr/lib/libcrypto.so.1.0.0
   fun:EVP_DigestUpdate
   fun:ssl3_finish_mac
   fun:ssl3_get_message
   fun:ssl3_get_finished
   fun:ssl3_connect
   fun:SSL_connect
   obj:/usr/lib/mysql/libmysqlclient.so.16.0.0
   fun:mysql_real_connect
   fun:_ZN7MysqlDb9reConnectEv
   fun:_ZN7MysqlDb7ConnectEPKcS1_S1_S1_i
   fun:_ZN14StDbServerImpl11addDataBaseE8StDbType10StDbDomain
   fun:_ZN15StDbManagerImpl10findServerE8StDbType10StDbDomain
   fun:_ZN15StDbManagerImpl6findDbE8StDbType10StDbDomain
   fun:_ZN18StDbConfigNodeImpl9buildTreeEi
   fun:_ZN15StDbManagerImpl10initConfigE8StDbType10StDbDomainPKci
   fun:_ZN15StDbManagerImpl10initConfigEPKcS1_i
   fun:_ZN10StDbBroker10InitConfigEPKcRiPc
   fun:_ZN11St_db_Maker9OpenMySQLEPKc
   fun:_ZN11St_db_Maker4InitEv
   fun:_ZN7StMaker4InitEv
   fun:_ZN7StChain4InitEv
   fun:_ZN9StBFChain4InitEv
}
{
   Memcheck:Cond
   fun:memcpy
   fun:SHA1_Update
   obj:/usr/lib/libcrypto.so.1.0.0
   fun:EVP_DigestUpdate
   fun:ssl3_finish_mac
   fun:ssl3_get_message
   fun:ssl3_get_finished
   fun:ssl3_connect
   fun:SSL_connect
   obj:/usr/lib/mysql/libmysqlclient.so.16.0.0
   fun:mysql_real_connect
   fun:_ZN7MysqlDb9reConnectEv
   fun:_ZN7MysqlDb7ConnectEPKcS1_S1_S1_i
   fun:_ZN14StDbServerImpl11addDataBaseE8StDbType10StDbDomain
   fun:_ZN15StDbManagerImpl10findServerE8StDbType10StDbDomain
   fun:_ZN15StDbManagerImpl6findDbE8StDbType10StDbDomain
   fun:_ZN18StDbConfigNodeImpl9buildTreeEi
   fun:_ZN15StDbManagerImpl10initConfigE8StDbType10StDbDomainPKci
   fun:_ZN15StDbManagerImpl10initConfigEPKcS1_i
   fun:_ZN10StDbBroker10InitConfigEPKcRiPc
   fun:_ZN11St_db_Maker9OpenMySQLEPKc
   fun:_ZN11St_db_Maker4InitEv
   fun:_ZN7StMaker4InitEv
   fun:_ZN7StChain4InitEv
}
{
   Memcheck:Cond
   fun:ssl3_get_finished
   fun:ssl3_connect
   fun:SSL_connect
   obj:/usr/lib/mysql/libmysqlclient.so.16.0.0
   fun:mysql_real_connect
   fun:_ZN7MysqlDb9reConnectEv
   fun:_ZN7MysqlDb7ConnectEPKcS1_S1_S1_i
   fun:_ZN14StDbServerImpl11addDataBaseE8StDbType10StDbDomain
   fun:_ZN15StDbManagerImpl10findServerE8StDbType10StDbDomain
   fun:_ZN15StDbManagerImpl6findDbE8StDbType10StDbDomain
   fun:_ZN18StDbConfigNodeImpl9buildTreeEi
   fun:_ZN15StDbManagerImpl10initConfigE8StDbType10StDbDomainPKci
   fun:_ZN15StDbManagerImpl10initConfigEPKcS1_i
   fun:_ZN10StDbBroker10InitConfigEPKcRiPc
   fun:_ZN11St_db_Maker9OpenMySQLEPKc
   fun:_ZN11St_db_Maker4InitEv
   fun:_ZN7StMaker4InitEv
   fun:_ZN7StChain4InitEv
   fun:_ZN9StBFChain4InitEv
   fun:_ZL23G__StChain_Cint_572_0_6P8G__valuePKcP8G__parami
   fun:_ZN4Cint19G__ExceptionWrapperEPFiP8G__valuePKcP8G__paramiES1_PcS5_i
   fun:G__execute_call
}
{
   Memcheck:Cond
   fun:CRYPTO_memcmp
   fun:ssl3_get_finished
   fun:ssl3_connect
   fun:SSL_connect
   obj:/usr/lib/mysql/libmysqlclient.so.16.0.0
   fun:mysql_real_connect
   fun:_ZN7MysqlDb9reConnectEv
   fun:_ZN7MysqlDb7ConnectEPKcS1_S1_S1_i
   fun:_ZN14StDbServerImpl11addDataBaseE8StDbType10StDbDomain
   fun:_ZN15StDbManagerImpl10findServerE8StDbType10StDbDomain
   fun:_ZN15StDbManagerImpl6findDbE8StDbType10StDbDomain
   fun:_ZN18StDbConfigNodeImpl9buildTreeEi
   fun:_ZN15StDbManagerImpl10initConfigE8StDbType10StDbDomainPKci
   fun:_ZN15StDbManagerImpl10initConfigEPKcS1_i
   fun:_ZN10StDbBroker10InitConfigEPKcRiPc
   fun:_ZN11St_db_Maker9OpenMySQLEPKc
   fun:_ZN11St_db_Maker4InitEv
   fun:_ZN7StMaker4InitEv
   fun:_ZN7StChain4InitEv
   fun:_ZN9StBFChain4InitEv
   fun:_ZL23G__StChain_Cint_572_0_6P8G__valuePKcP8G__parami
   fun:_ZN4Cint19G__ExceptionWrapperEPFiP8G__valuePKcP8G__paramiES1_PcS5_i
   fun:G__execute_call
}
{
   Memcheck:Cond
   fun:memcpy
   fun:ssl3_get_finished
   fun:ssl3_connect
   fun:SSL_connect
   obj:/usr/lib/mysql/libmysqlclient.so.16.0.0
   fun:mysql_real_connect
   fun:_ZN7MysqlDb9reConnectEv
   fun:_ZN7MysqlDb7ConnectEPKcS1_S1_S1_i
   fun:_ZN14StDbServerImpl11addDataBaseE8StDbType10StDbDomain
   fun:_ZN15StDbManagerImpl10findServerE8StDbType10StDbDomain
   fun:_ZN15StDbManagerImpl6findDbE8StDbType10StDbDomain
   fun:_ZN18StDbConfigNodeImpl9buildTreeEi
   fun:_ZN15StDbManagerImpl10initConfigE8StDbType10StDbDomainPKci
   fun:_ZN15StDbManagerImpl10initConfigEPKcS1_i
   fun:_ZN10StDbBroker10InitConfigEPKcRiPc
   fun:_ZN11St_db_Maker9OpenMySQLEPKc
   fun:_ZN11St_db_Maker4InitEv
   fun:_ZN7StMaker4InitEv
   fun:_ZN7StChain4InitEv
   fun:_ZN9StBFChain4InitEv
   fun:_ZL23G__StChain_Cint_572_0_6P8G__valuePKcP8G__parami
   fun:_ZN4Cint19G__ExceptionWrapperEPFiP8G__valuePKcP8G__paramiES1_PcS5_i
   fun:G__execute_call
}
{
   Memcheck:Value4
   fun:memcpy
   fun:ssl3_get_finished
   fun:ssl3_connect
   fun:SSL_connect
   obj:/usr/lib/mysql/libmysqlclient.so.16.0.0
   fun:mysql_real_connect
   fun:_ZN7MysqlDb9reConnectEv
   fun:_ZN7MysqlDb7ConnectEPKcS1_S1_S1_i
   fun:_ZN14StDbServerImpl11addDataBaseE8StDbType10StDbDomain
   fun:_ZN15StDbManagerImpl10findServerE8StDbType10StDbDomain
   fun:_ZN15StDbManagerImpl6findDbE8StDbType10StDbDomain
   fun:_ZN18StDbConfigNodeImpl9buildTreeEi
   fun:_ZN15StDbManagerImpl10initConfigE8StDbType10StDbDomainPKci
   fun:_ZN15StDbManagerImpl10initConfigEPKcS1_i
   fun:_ZN10StDbBroker10InitConfigEPKcRiPc
   fun:_ZN11St_db_Maker9OpenMySQLEPKc
   fun:_ZN11St_db_Maker4InitEv
   fun:_ZN7StMaker4InitEv
   fun:_ZN7StChain4InitEv
   fun:_ZN9StBFChain4InitEv
   fun:_ZL23G__StChain_Cint_572_0_6P8G__valuePKcP8G__parami
   fun:_ZN4Cint19G__ExceptionWrapperEPFiP8G__valuePKcP8G__paramiES1_PcS5_i
   fun:G__execute_call
}
{
   Memcheck:Cond
   fun:ssl3_read_bytes
   obj:/usr/lib/libssl.so.1.0.0
   fun:SSL_read
   fun:vio_ssl_read
   obj:/usr/lib/mysql/libmysqlclient.so.16.0.0
   fun:my_net_read
   fun:cli_safe_read
   fun:mysql_real_connect
   fun:_ZN7MysqlDb9reConnectEv
   fun:_ZN7MysqlDb7ConnectEPKcS1_S1_S1_i
   fun:_ZN14StDbServerImpl11addDataBaseE8StDbType10StDbDomain
   fun:_ZN15StDbManagerImpl10findServerE8StDbType10StDbDomain
   fun:_ZN15StDbManagerImpl6findDbE8StDbType10StDbDomain
   fun:_ZN18StDbConfigNodeImpl9buildTreeEi
   fun:_ZN15StDbManagerImpl10initConfigE8StDbType10StDbDomainPKci
   fun:_ZN15StDbManagerImpl10initConfigEPKcS1_i
   fun:_ZN10StDbBroker10InitConfigEPKcRiPc
   fun:_ZN11St_db_Maker9OpenMySQLEPKc
   fun:_ZN11St_db_Maker4InitEv
   fun:_ZN7StMaker4InitEv
   fun:_ZN7StChain4InitEv
   fun:_ZN9StBFChain4InitEv
   fun:_ZL23G__StChain_Cint_572_0_6P8G__valuePKcP8G__parami
   fun:_ZN4Cint19G__ExceptionWrapperEPFiP8G__valuePKcP8G__paramiES1_PcS5_i
}
{
   Memcheck:Cond
   fun:memcpy
   fun:ssl3_read_bytes
   obj:/usr/lib/libssl.so.1.0.0
   fun:SSL_read
   fun:vio_ssl_read
   obj:/usr/lib/mysql/libmysqlclient.so.16.0.0
   fun:my_net_read
   fun:cli_safe_read
   fun:mysql_real_connect
   fun:_ZN7MysqlDb9reConnectEv
   fun:_ZN7MysqlDb7ConnectEPKcS1_S1_S1_i
   fun:_ZN14StDbServerImpl11addDataBaseE8StDbType10StDbDomain
   fun:_ZN15StDbManagerImpl10findServerE8StDbType10StDbDomain
   fun:_ZN15StDbManagerImpl6findDbE8StDbType10StDbDomain
   fun:_ZN18StDbConfigNodeImpl9buildTreeEi
   fun:_ZN15StDbManagerImpl10initConfigE8StDbType10StDbDomainPKci
   fun:_ZN15StDbManagerImpl10initConfigEPKcS1_i
   fun:_ZN10StDbBroker10InitConfigEPKcRiPc
   fun:_ZN11St_db_Maker9OpenMySQLEPKc
   fun:_ZN11St_db_Maker4InitEv
   fun:_ZN7StMaker4InitEv
   fun:_ZN7StChain4InitEv
   fun:_ZN9StBFChain4InitEv
   fun:_ZL23G__StChain_Cint_572_0_6P8G__valuePKcP8G__parami
}
{
   Memcheck:Value4
   fun:memcpy
   fun:ssl3_read_bytes
   obj:/usr/lib/libssl.so.1.0.0
   fun:SSL_read
   fun:vio_ssl_read
   obj:/usr/lib/mysql/libmysqlclient.so.16.0.0
   fun:my_net_read
   fun:cli_safe_read
   fun:mysql_real_connect
   fun:_ZN7MysqlDb9reConnectEv
   fun:_ZN7MysqlDb7ConnectEPKcS1_S1_S1_i
   fun:_ZN14StDbServerImpl11addDataBaseE8StDbType10StDbDomain
   fun:_ZN15StDbManagerImpl10findServerE8StDbType10StDbDomain
   fun:_ZN15StDbManagerImpl6findDbE8StDbType10StDbDomain
   fun:_ZN18StDbConfigNodeImpl9buildTreeEi
   fun:_ZN15StDbManagerImpl10initConfigE8StDbType10StDbDomainPKci
   fun:_ZN15StDbManagerImpl10initConfigEPKcS1_i
   fun:_ZN10StDbBroker10InitConfigEPKcRiPc
   fun:_ZN11St_db_Maker9OpenMySQLEPKc
   fun:_ZN11St_db_Maker4InitEv
   fun:_ZN7StMaker4InitEv
   fun:_ZN7StChain4InitEv
   fun:_ZN9StBFChain4InitEv
   fun:_ZL23G__StChain_Cint_572_0_6P8G__valuePKcP8G__parami
}
{
   Memcheck:Cond
   obj:/usr/lib/libssl.so.1.0.0
   fun:SSL_read
   fun:vio_ssl_read
   obj:/usr/lib/mysql/libmysqlclient.so.16.0.0
   fun:my_net_read
   fun:cli_safe_read
   fun:mysql_real_connect
   fun:_ZN7MysqlDb9reConnectEv
   fun:_ZN7MysqlDb7ConnectEPKcS1_S1_S1_i
   fun:_ZN14StDbServerImpl11addDataBaseE8StDbType10StDbDomain
   fun:_ZN15StDbManagerImpl10findServerE8StDbType10StDbDomain
   fun:_ZN15StDbManagerImpl6findDbE8StDbType10StDbDomain
   fun:_ZN18StDbConfigNodeImpl9buildTreeEi
   fun:_ZN15StDbManagerImpl10initConfigE8StDbType10StDbDomainPKci
   fun:_ZN15StDbManagerImpl10initConfigEPKcS1_i
   fun:_ZN10StDbBroker10InitConfigEPKcRiPc
   fun:_ZN11St_db_Maker9OpenMySQLEPKc
   fun:_ZN11St_db_Maker4InitEv
   fun:_ZN7StMaker4InitEv
   fun:_ZN7StChain4InitEv
   fun:_ZN9StBFChain4InitEv
   fun:_ZL23G__StChain_Cint_572_0_6P8G__valuePKcP8G__parami
   fun:_ZN4Cint19G__ExceptionWrapperEPFiP8G__valuePKcP8G__paramiES1_PcS5_i
   fun:G__execute_call
}
{
   Memcheck:Cond
   obj:/usr/lib/mysql/libmysqlclient.so.16.0.0
   fun:my_net_read
   fun:cli_safe_read
   fun:mysql_real_connect
   fun:_ZN7MysqlDb9reConnectEv
   fun:_ZN7MysqlDb7ConnectEPKcS1_S1_S1_i
   fun:_ZN14StDbServerImpl11addDataBaseE8StDbType10StDbDomain
   fun:_ZN15StDbManagerImpl10findServerE8StDbType10StDbDomain
   fun:_ZN15StDbManagerImpl6findDbE8StDbType10StDbDomain
   fun:_ZN18StDbConfigNodeImpl9buildTreeEi
   fun:_ZN15StDbManagerImpl10initConfigE8StDbType10StDbDomainPKci
   fun:_ZN15StDbManagerImpl10initConfigEPKcS1_i
   fun:_ZN10StDbBroker10InitConfigEPKcRiPc
   fun:_ZN11St_db_Maker9OpenMySQLEPKc
   fun:_ZN11St_db_Maker4InitEv
   fun:_ZN7StMaker4InitEv
   fun:_ZN7StChain4InitEv
   fun:_ZN9StBFChain4InitEv
   fun:_ZL23G__StChain_Cint_572_0_6P8G__valuePKcP8G__parami
   fun:_ZN4Cint19G__ExceptionWrapperEPFiP8G__valuePKcP8G__paramiES1_PcS5_i
   fun:G__execute_call
}
{
   Memcheck:Cond
   fun:my_net_read
   fun:cli_safe_read
   fun:mysql_real_connect
   fun:_ZN7MysqlDb9reConnectEv
   fun:_ZN7MysqlDb7ConnectEPKcS1_S1_S1_i
   fun:_ZN14StDbServerImpl11addDataBaseE8StDbType10StDbDomain
   fun:_ZN15StDbManagerImpl10findServerE8StDbType10StDbDomain
   fun:_ZN15StDbManagerImpl6findDbE8StDbType10StDbDomain
   fun:_ZN18StDbConfigNodeImpl9buildTreeEi
   fun:_ZN15StDbManagerImpl10initConfigE8StDbType10StDbDomainPKci
   fun:_ZN15StDbManagerImpl10initConfigEPKcS1_i
   fun:_ZN10StDbBroker10InitConfigEPKcRiPc
   fun:_ZN11St_db_Maker9OpenMySQLEPKc
   fun:_ZN11St_db_Maker4InitEv
   fun:_ZN7StMaker4InitEv
   fun:_ZN7StChain4InitEv
   fun:_ZN9StBFChain4InitEv
   fun:_ZL23G__StChain_Cint_572_0_6P8G__valuePKcP8G__parami
   fun:_ZN4Cint19G__ExceptionWrapperEPFiP8G__valuePKcP8G__paramiES1_PcS5_i
   fun:G__execute_call
}
{
   Memcheck:Value4
   fun:my_net_read
   fun:cli_safe_read
   fun:mysql_real_connect
   fun:_ZN7MysqlDb9reConnectEv
   fun:_ZN7MysqlDb7ConnectEPKcS1_S1_S1_i
   fun:_ZN14StDbServerImpl11addDataBaseE8StDbType10StDbDomain
   fun:_ZN15StDbManagerImpl10findServerE8StDbType10StDbDomain
   fun:_ZN15StDbManagerImpl6findDbE8StDbType10StDbDomain
   fun:_ZN18StDbConfigNodeImpl9buildTreeEi
   fun:_ZN15StDbManagerImpl10initConfigE8StDbType10StDbDomainPKci
   fun:_ZN15StDbManagerImpl10initConfigEPKcS1_i
   fun:_ZN10StDbBroker10InitConfigEPKcRiPc
   fun:_ZN11St_db_Maker9OpenMySQLEPKc
   fun:_ZN11St_db_Maker4InitEv
   fun:_ZN7StMaker4InitEv
   fun:_ZN7StChain4InitEv
   fun:_ZN9StBFChain4InitEv
   fun:_ZL23G__StChain_Cint_572_0_6P8G__valuePKcP8G__parami
   fun:_ZN4Cint19G__ExceptionWrapperEPFiP8G__valuePKcP8G__paramiES1_PcS5_i
   fun:G__execute_call
}
{
   Memcheck:Cond
   fun:cli_safe_read
   fun:mysql_real_connect
   fun:_ZN7MysqlDb9reConnectEv
   fun:_ZN7MysqlDb7ConnectEPKcS1_S1_S1_i
   fun:_ZN14StDbServerImpl11addDataBaseE8StDbType10StDbDomain
   fun:_ZN15StDbManagerImpl10findServerE8StDbType10StDbDomain
   fun:_ZN15StDbManagerImpl6findDbE8StDbType10StDbDomain
   fun:_ZN18StDbConfigNodeImpl9buildTreeEi
   fun:_ZN15StDbManagerImpl10initConfigE8StDbType10StDbDomainPKci
   fun:_ZN15StDbManagerImpl10initConfigEPKcS1_i
   fun:_ZN10StDbBroker10InitConfigEPKcRiPc
   fun:_ZN11St_db_Maker9OpenMySQLEPKc
   fun:_ZN11St_db_Maker4InitEv
   fun:_ZN7StMaker4InitEv
   fun:_ZN7StChain4InitEv
   fun:_ZN9StBFChain4InitEv
   fun:_ZL23G__StChain_Cint_572_0_6P8G__valuePKcP8G__parami
   fun:_ZN4Cint19G__ExceptionWrapperEPFiP8G__valuePKcP8G__paramiES1_PcS5_i
   fun:G__execute_call
}
{
   Memcheck:Cond
   fun:mysql_real_connect
   fun:_ZN7MysqlDb9reConnectEv
   fun:_ZN7MysqlDb7ConnectEPKcS1_S1_S1_i
   fun:_ZN14StDbServerImpl11addDataBaseE8StDbType10StDbDomain
   fun:_ZN15StDbManagerImpl10findServerE8StDbType10StDbDomain
   fun:_ZN15StDbManagerImpl6findDbE8StDbType10StDbDomain
   fun:_ZN18StDbConfigNodeImpl9buildTreeEi
   fun:_ZN15StDbManagerImpl10initConfigE8StDbType10StDbDomainPKci
   fun:_ZN15StDbManagerImpl10initConfigEPKcS1_i
   fun:_ZN10StDbBroker10InitConfigEPKcRiPc
   fun:_ZN11St_db_Maker9OpenMySQLEPKc
   fun:_ZN11St_db_Maker4InitEv
   fun:_ZN7StMaker4InitEv
   fun:_ZN7StChain4InitEv
   fun:_ZN9StBFChain4InitEv
   fun:_ZL23G__StChain_Cint_572_0_6P8G__valuePKcP8G__parami
   fun:_ZN4Cint19G__ExceptionWrapperEPFiP8G__valuePKcP8G__paramiES1_PcS5_i
   fun:G__execute_call
}
{
   Memcheck:Cond
   obj:/usr/lib/mysql/libmysqlclient.so.16.0.0
   fun:my_net_read
   fun:cli_safe_read
   obj:/usr/lib/mysql/libmysqlclient.so.16.0.0
   fun:mysql_real_query
   fun:mysql_query
   fun:_ZN7MysqlDb9reConnectEv
   fun:_ZN7MysqlDb7ConnectEPKcS1_S1_S1_i
   fun:_ZN14StDbServerImpl11addDataBaseE8StDbType10StDbDomain
   fun:_ZN15StDbManagerImpl10findServerE8StDbType10StDbDomain
   fun:_ZN15StDbManagerImpl6findDbE8StDbType10StDbDomain
   fun:_ZN18StDbConfigNodeImpl9buildTreeEi
   fun:_ZN15StDbManagerImpl10initConfigE8StDbType10StDbDomainPKci
   fun:_ZN15StDbManagerImpl10initConfigEPKcS1_i
   fun:_ZN10StDbBroker10InitConfigEPKcRiPc
   fun:_ZN11St_db_Maker9OpenMySQLEPKc
   fun:_ZN11St_db_Maker4InitEv
   fun:_ZN7StMaker4InitEv
   fun:_ZN7StChain4InitEv
   fun:_ZN9StBFChain4InitEv
   fun:_ZL23G__StChain_Cint_572_0_6P8G__valuePKcP8G__parami
   fun:_ZN4Cint19G__ExceptionWrapperEPFiP8G__valuePKcP8G__paramiES1_PcS5_i
   fun:G__execute_call
}
{
   Memcheck:Cond
   fun:memcpy
   fun:ssl3_read_bytes
   obj:/usr/lib/libssl.so.1.0.0
   fun:SSL_read
   fun:vio_ssl_read
   obj:/usr/lib/mysql/libmysqlclient.so.16.0.0
   fun:my_net_read
   fun:cli_safe_read
   obj:/usr/lib/mysql/libmysqlclient.so.16.0.0
   fun:mysql_real_query
   fun:mysql_query
   fun:_ZN7MysqlDb9reConnectEv
   fun:_ZN7MysqlDb7ConnectEPKcS1_S1_S1_i
   fun:_ZN14StDbServerImpl11addDataBaseE8StDbType10StDbDomain
   fun:_ZN15StDbManagerImpl10findServerE8StDbType10StDbDomain
   fun:_ZN15StDbManagerImpl6findDbE8StDbType10StDbDomain
   fun:_ZN18StDbConfigNodeImpl9buildTreeEi
   fun:_ZN15StDbManagerImpl10initConfigE8StDbType10StDbDomainPKci
   fun:_ZN15StDbManagerImpl10initConfigEPKcS1_i
   fun:_ZN10StDbBroker10InitConfigEPKcRiPc
   fun:_ZN11St_db_Maker9OpenMySQLEPKc
   fun:_ZN11St_db_Maker4InitEv
   fun:_ZN7StMaker4InitEv
   fun:_ZN7StChain4InitEv
}
{
   Memcheck:Value4
   fun:memcpy
   fun:ssl3_read_bytes
   obj:/usr/lib/libssl.so.1.0.0
   fun:SSL_read
   fun:vio_ssl_read
   obj:/usr/lib/mysql/libmysqlclient.so.16.0.0
   fun:my_net_read
   fun:cli_safe_read
   obj:/usr/lib/mysql/libmysqlclient.so.16.0.0
   fun:mysql_real_query
   fun:mysql_query
   fun:_ZN7MysqlDb9reConnectEv
   fun:_ZN7MysqlDb7ConnectEPKcS1_S1_S1_i
   fun:_ZN14StDbServerImpl11addDataBaseE8StDbType10StDbDomain
   fun:_ZN15StDbManagerImpl10findServerE8StDbType10StDbDomain
   fun:_ZN15StDbManagerImpl6findDbE8StDbType10StDbDomain
   fun:_ZN18StDbConfigNodeImpl9buildTreeEi
   fun:_ZN15StDbManagerImpl10initConfigE8StDbType10StDbDomainPKci
   fun:_ZN15StDbManagerImpl10initConfigEPKcS1_i
   fun:_ZN10StDbBroker10InitConfigEPKcRiPc
   fun:_ZN11St_db_Maker9OpenMySQLEPKc
   fun:_ZN11St_db_Maker4InitEv
   fun:_ZN7StMaker4InitEv
   fun:_ZN7StChain4InitEv
}
{
   Memcheck:Cond
   fun:my_net_read
   fun:cli_safe_read
   obj:/usr/lib/mysql/libmysqlclient.so.16.0.0
   fun:mysql_real_query
   fun:mysql_query
   fun:_ZN7MysqlDb9reConnectEv
   fun:_ZN7MysqlDb7ConnectEPKcS1_S1_S1_i
   fun:_ZN14StDbServerImpl11addDataBaseE8StDbType10StDbDomain
   fun:_ZN15StDbManagerImpl10findServerE8StDbType10StDbDomain
   fun:_ZN15StDbManagerImpl6findDbE8StDbType10StDbDomain
   fun:_ZN18StDbConfigNodeImpl9buildTreeEi
   fun:_ZN15StDbManagerImpl10initConfigE8StDbType10StDbDomainPKci
   fun:_ZN15StDbManagerImpl10initConfigEPKcS1_i
   fun:_ZN10StDbBroker10InitConfigEPKcRiPc
   fun:_ZN11St_db_Maker9OpenMySQLEPKc
   fun:_ZN11St_db_Maker4InitEv
   fun:_ZN7StMaker4InitEv
   fun:_ZN7StChain4InitEv
   fun:_ZN9StBFChain4InitEv
   fun:_ZL23G__StChain_Cint_572_0_6P8G__valuePKcP8G__parami
   fun:_ZN4Cint19G__ExceptionWrapperEPFiP8G__valuePKcP8G__paramiES1_PcS5_i
   fun:G__execute_call
}
{
   Memcheck:Cond
   fun:my_uncompress
   fun:my_net_read
   fun:cli_safe_read
   obj:/usr/lib/mysql/libmysqlclient.so.16.0.0
   fun:mysql_real_query
   fun:mysql_query
   fun:_ZN7MysqlDb9reConnectEv
   fun:_ZN7MysqlDb7ConnectEPKcS1_S1_S1_i
   fun:_ZN14StDbServerImpl11addDataBaseE8StDbType10StDbDomain
   fun:_ZN15StDbManagerImpl10findServerE8StDbType10StDbDomain
   fun:_ZN15StDbManagerImpl6findDbE8StDbType10StDbDomain
   fun:_ZN18StDbConfigNodeImpl9buildTreeEi
   fun:_ZN15StDbManagerImpl10initConfigE8StDbType10StDbDomainPKci
   fun:_ZN15StDbManagerImpl10initConfigEPKcS1_i
   fun:_ZN10StDbBroker10InitConfigEPKcRiPc
   fun:_ZN11St_db_Maker9OpenMySQLEPKc
   fun:_ZN11St_db_Maker4InitEv
   fun:_ZN7StMaker4InitEv
   fun:_ZN7StChain4InitEv
   fun:_ZN9StBFChain4InitEv
   fun:_ZL23G__StChain_Cint_572_0_6P8G__valuePKcP8G__parami
   fun:_ZN4Cint19G__ExceptionWrapperEPFiP8G__valuePKcP8G__paramiES1_PcS5_i
   fun:G__execute_call
}
{
   Memcheck:Cond
   fun:inflate
   fun:uncompress
   fun:my_uncompress
   fun:my_net_read
   fun:cli_safe_read
   obj:/usr/lib/mysql/libmysqlclient.so.16.0.0
   fun:mysql_real_query
   fun:mysql_query
   fun:_ZN7MysqlDb9reConnectEv
   fun:_ZN7MysqlDb7ConnectEPKcS1_S1_S1_i
   fun:_ZN14StDbServerImpl11addDataBaseE8StDbType10StDbDomain
   fun:_ZN15StDbManagerImpl10findServerE8StDbType10StDbDomain
   fun:_ZN15StDbManagerImpl6findDbE8StDbType10StDbDomain
   fun:_ZN18StDbConfigNodeImpl9buildTreeEi
   fun:_ZN15StDbManagerImpl10initConfigE8StDbType10StDbDomainPKci
   fun:_ZN15StDbManagerImpl10initConfigEPKcS1_i
   fun:_ZN10StDbBroker10InitConfigEPKcRiPc
   fun:_ZN11St_db_Maker9OpenMySQLEPKc
   fun:_ZN11St_db_Maker4InitEv
   fun:_ZN7StMaker4InitEv
   fun:_ZN7StChain4InitEv
   fun:_ZN9StBFChain4InitEv
   fun:_ZL23G__StChain_Cint_572_0_6P8G__valuePKcP8G__parami
   fun:_ZN4Cint19G__ExceptionWrapperEPFiP8G__valuePKcP8G__paramiES1_PcS5_i
}
{
   Memcheck:Value4
   fun:inflate
   fun:uncompress
   fun:my_uncompress
   fun:my_net_read
   fun:cli_safe_read
   obj:/usr/lib/mysql/libmysqlclient.so.16.0.0
   fun:mysql_real_query
   fun:mysql_query
   fun:_ZN7MysqlDb9reConnectEv
   fun:_ZN7MysqlDb7ConnectEPKcS1_S1_S1_i
   fun:_ZN14StDbServerImpl11addDataBaseE8StDbType10StDbDomain
   fun:_ZN15StDbManagerImpl10findServerE8StDbType10StDbDomain
   fun:_ZN15StDbManagerImpl6findDbE8StDbType10StDbDomain
   fun:_ZN18StDbConfigNodeImpl9buildTreeEi
   fun:_ZN15StDbManagerImpl10initConfigE8StDbType10StDbDomainPKci
   fun:_ZN15StDbManagerImpl10initConfigEPKcS1_i
   fun:_ZN10StDbBroker10InitConfigEPKcRiPc
   fun:_ZN11St_db_Maker9OpenMySQLEPKc
   fun:_ZN11St_db_Maker4InitEv
   fun:_ZN7StMaker4InitEv
   fun:_ZN7StChain4InitEv
   fun:_ZN9StBFChain4InitEv
   fun:_ZL23G__StChain_Cint_572_0_6P8G__valuePKcP8G__parami
   fun:_ZN4Cint19G__ExceptionWrapperEPFiP8G__valuePKcP8G__paramiES1_PcS5_i
}
{
   Memcheck:Cond
   fun:adler32
   fun:inflate
   fun:uncompress
   fun:my_uncompress
   fun:my_net_read
   fun:cli_safe_read
   obj:/usr/lib/mysql/libmysqlclient.so.16.0.0
   fun:mysql_real_query
   fun:mysql_query
   fun:_ZN7MysqlDb9reConnectEv
   fun:_ZN7MysqlDb7ConnectEPKcS1_S1_S1_i
   fun:_ZN14StDbServerImpl11addDataBaseE8StDbType10StDbDomain
   fun:_ZN15StDbManagerImpl10findServerE8StDbType10StDbDomain
   fun:_ZN15StDbManagerImpl6findDbE8StDbType10StDbDomain
   fun:_ZN18StDbConfigNodeImpl9buildTreeEi
   fun:_ZN15StDbManagerImpl10initConfigE8StDbType10StDbDomainPKci
   fun:_ZN15StDbManagerImpl10initConfigEPKcS1_i
   fun:_ZN10StDbBroker10InitConfigEPKcRiPc
   fun:_ZN11St_db_Maker9OpenMySQLEPKc
   fun:_ZN11St_db_Maker4InitEv
   fun:_ZN7StMaker4InitEv
   fun:_ZN7StChain4InitEv
   fun:_ZN9StBFChain4InitEv
   fun:_ZL23G__StChain_Cint_572_0_6P8G__valuePKcP8G__parami
}
{
   Memcheck:Value4
   fun:adler32
   fun:inflate
   fun:uncompress
   fun:my_uncompress
   fun:my_net_read
   fun:cli_safe_read
   obj:/usr/lib/mysql/libmysqlclient.so.16.0.0
   fun:mysql_real_query
   fun:mysql_query
   fun:_ZN7MysqlDb9reConnectEv
   fun:_ZN7MysqlDb7ConnectEPKcS1_S1_S1_i
   fun:_ZN14StDbServerImpl11addDataBaseE8StDbType10StDbDomain
   fun:_ZN15StDbManagerImpl10findServerE8StDbType10StDbDomain
   fun:_ZN15StDbManagerImpl6findDbE8StDbType10StDbDomain
   fun:_ZN18StDbConfigNodeImpl9buildTreeEi
   fun:_ZN15StDbManagerImpl10initConfigE8StDbType10StDbDomainPKci
   fun:_ZN15StDbManagerImpl10initConfigEPKcS1_i
   fun:_ZN10StDbBroker10InitConfigEPKcRiPc
   fun:_ZN11St_db_Maker9OpenMySQLEPKc
   fun:_ZN11St_db_Maker4InitEv
   fun:_ZN7StMaker4InitEv
   fun:_ZN7StChain4InitEv
   fun:_ZN9StBFChain4InitEv
   fun:_ZL23G__StChain_Cint_572_0_6P8G__valuePKcP8G__parami
}
{
   Memcheck:Cond
   fun:memcpy
   fun:my_uncompress
   fun:my_net_read
   fun:cli_safe_read
   obj:/usr/lib/mysql/libmysqlclient.so.16.0.0
   fun:mysql_real_query
   fun:mysql_query
   fun:_ZN7MysqlDb9reConnectEv
   fun:_ZN7MysqlDb7ConnectEPKcS1_S1_S1_i
   fun:_ZN14StDbServerImpl11addDataBaseE8StDbType10StDbDomain
   fun:_ZN15StDbManagerImpl10findServerE8StDbType10StDbDomain
   fun:_ZN15StDbManagerImpl6findDbE8StDbType10StDbDomain
   fun:_ZN18StDbConfigNodeImpl9buildTreeEi
   fun:_ZN15StDbManagerImpl10initConfigE8StDbType10StDbDomainPKci
   fun:_ZN15StDbManagerImpl10initConfigEPKcS1_i
   fun:_ZN10StDbBroker10InitConfigEPKcRiPc
   fun:_ZN11St_db_Maker9OpenMySQLEPKc
   fun:_ZN11St_db_Maker4InitEv
   fun:_ZN7StMaker4InitEv
   fun:_ZN7StChain4InitEv
   fun:_ZN9StBFChain4InitEv
   fun:_ZL23G__StChain_Cint_572_0_6P8G__valuePKcP8G__parami
   fun:_ZN4Cint19G__ExceptionWrapperEPFiP8G__valuePKcP8G__paramiES1_PcS5_i
   fun:G__execute_call
}
{
   Memcheck:Value4
   fun:memcpy
   fun:my_uncompress
   fun:my_net_read
   fun:cli_safe_read
   obj:/usr/lib/mysql/libmysqlclient.so.16.0.0
   fun:mysql_real_query
   fun:mysql_query
   fun:_ZN7MysqlDb9reConnectEv
   fun:_ZN7MysqlDb7ConnectEPKcS1_S1_S1_i
   fun:_ZN14StDbServerImpl11addDataBaseE8StDbType10StDbDomain
   fun:_ZN15StDbManagerImpl10findServerE8StDbType10StDbDomain
   fun:_ZN15StDbManagerImpl6findDbE8StDbType10StDbDomain
   fun:_ZN18StDbConfigNodeImpl9buildTreeEi
   fun:_ZN15StDbManagerImpl10initConfigE8StDbType10StDbDomainPKci
   fun:_ZN15StDbManagerImpl10initConfigEPKcS1_i
   fun:_ZN10StDbBroker10InitConfigEPKcRiPc
   fun:_ZN11St_db_Maker9OpenMySQLEPKc
   fun:_ZN11St_db_Maker4InitEv
   fun:_ZN7StMaker4InitEv
   fun:_ZN7StChain4InitEv
   fun:_ZN9StBFChain4InitEv
   fun:_ZL23G__StChain_Cint_572_0_6P8G__valuePKcP8G__parami
   fun:_ZN4Cint19G__ExceptionWrapperEPFiP8G__valuePKcP8G__paramiES1_PcS5_i
   fun:G__execute_call
}
{
   Memcheck:Cond
   fun:my_net_read
   fun:cli_safe_read
   fun:cli_read_rows
   obj:/usr/lib/mysql/libmysqlclient.so.16.0.0
   fun:mysql_real_query
   fun:mysql_query
   fun:_ZN7MysqlDb9reConnectEv
   fun:_ZN7MysqlDb7ConnectEPKcS1_S1_S1_i
   fun:_ZN14StDbServerImpl11addDataBaseE8StDbType10StDbDomain
   fun:_ZN15StDbManagerImpl10findServerE8StDbType10StDbDomain
   fun:_ZN15StDbManagerImpl6findDbE8StDbType10StDbDomain
   fun:_ZN18StDbConfigNodeImpl9buildTreeEi
   fun:_ZN15StDbManagerImpl10initConfigE8StDbType10StDbDomainPKci
   fun:_ZN15StDbManagerImpl10initConfigEPKcS1_i
   fun:_ZN10StDbBroker10InitConfigEPKcRiPc
   fun:_ZN11St_db_Maker9OpenMySQLEPKc
   fun:_ZN11St_db_Maker4InitEv
   fun:_ZN7StMaker4InitEv
   fun:_ZN7StChain4InitEv
   fun:_ZN9StBFChain4InitEv
   fun:_ZL23G__StChain_Cint_572_0_6P8G__valuePKcP8G__parami
   fun:_ZN4Cint19G__ExceptionWrapperEPFiP8G__valuePKcP8G__paramiES1_PcS5_i
   fun:G__execute_call
}
{
   Memcheck:Value4
   fun:my_net_read
   fun:cli_safe_read
   fun:cli_read_rows
   obj:/usr/lib/mysql/libmysqlclient.so.16.0.0
   fun:mysql_real_query
   fun:mysql_query
   fun:_ZN7MysqlDb9reConnectEv
   fun:_ZN7MysqlDb7ConnectEPKcS1_S1_S1_i
   fun:_ZN14StDbServerImpl11addDataBaseE8StDbType10StDbDomain
   fun:_ZN15StDbManagerImpl10findServerE8StDbType10StDbDomain
   fun:_ZN15StDbManagerImpl6findDbE8StDbType10StDbDomain
   fun:_ZN18StDbConfigNodeImpl9buildTreeEi
   fun:_ZN15StDbManagerImpl10initConfigE8StDbType10StDbDomainPKci
   fun:_ZN15StDbManagerImpl10initConfigEPKcS1_i
   fun:_ZN10StDbBroker10InitConfigEPKcRiPc
   fun:_ZN11St_db_Maker9OpenMySQLEPKc
   fun:_ZN11St_db_Maker4InitEv
   fun:_ZN7StMaker4InitEv
   fun:_ZN7StChain4InitEv
   fun:_ZN9StBFChain4InitEv
   fun:_ZL23G__StChain_Cint_572_0_6P8G__valuePKcP8G__parami
   fun:_ZN4Cint19G__ExceptionWrapperEPFiP8G__valuePKcP8G__paramiES1_PcS5_i
   fun:G__execute_call
}
{
   Memcheck:Cond
   fun:cli_safe_read
   fun:cli_read_rows
   obj:/usr/lib/mysql/libmysqlclient.so.16.0.0
   fun:mysql_real_query
   fun:mysql_query
   fun:_ZN7MysqlDb9reConnectEv
   fun:_ZN7MysqlDb7ConnectEPKcS1_S1_S1_i
   fun:_ZN14StDbServerImpl11addDataBaseE8StDbType10StDbDomain
   fun:_ZN15StDbManagerImpl10findServerE8StDbType10StDbDomain
   fun:_ZN15StDbManagerImpl6findDbE8StDbType10StDbDomain
   fun:_ZN18StDbConfigNodeImpl9buildTreeEi
   fun:_ZN15StDbManagerImpl10initConfigE8StDbType10StDbDomainPKci
   fun:_ZN15StDbManagerImpl10initConfigEPKcS1_i
   fun:_ZN10StDbBroker10InitConfigEPKcRiPc
   fun:_ZN11St_db_Maker9OpenMySQLEPKc
   fun:_ZN11St_db_Maker4InitEv
   fun:_ZN7StMaker4InitEv
   fun:_ZN7StChain4InitEv
   fun:_ZN9StBFChain4InitEv
   fun:_ZL23G__StChain_Cint_572_0_6P8G__valuePKcP8G__parami
   fun:_ZN4Cint19G__ExceptionWrapperEPFiP8G__valuePKcP8G__paramiES1_PcS5_i
   fun:G__execute_call
}
{
   Memcheck:Value4
   fun:cli_safe_read
   fun:cli_read_rows
   obj:/usr/lib/mysql/libmysqlclient.so.16.0.0
   fun:mysql_real_query
   fun:mysql_query
   fun:_ZN7MysqlDb9reConnectEv
   fun:_ZN7MysqlDb7ConnectEPKcS1_S1_S1_i
   fun:_ZN14StDbServerImpl11addDataBaseE8StDbType10StDbDomain
   fun:_ZN15StDbManagerImpl10findServerE8StDbType10StDbDomain
   fun:_ZN15StDbManagerImpl6findDbE8StDbType10StDbDomain
   fun:_ZN18StDbConfigNodeImpl9buildTreeEi
   fun:_ZN15StDbManagerImpl10initConfigE8StDbType10StDbDomainPKci
   fun:_ZN15StDbManagerImpl10initConfigEPKcS1_i
   fun:_ZN10StDbBroker10InitConfigEPKcRiPc
   fun:_ZN11St_db_Maker9OpenMySQLEPKc
   fun:_ZN11St_db_Maker4InitEv
   fun:_ZN7StMaker4InitEv
   fun:_ZN7StChain4InitEv
   fun:_ZN9StBFChain4InitEv
   fun:_ZL23G__StChain_Cint_572_0_6P8G__valuePKcP8G__parami
   fun:_ZN4Cint19G__ExceptionWrapperEPFiP8G__valuePKcP8G__paramiES1_PcS5_i
   fun:G__execute_call
}
{
   Memcheck:Cond
   fun:cli_read_rows
   obj:/usr/lib/mysql/libmysqlclient.so.16.0.0
   fun:mysql_real_query
   fun:mysql_query
   fun:_ZN7MysqlDb9reConnectEv
   fun:_ZN7MysqlDb7ConnectEPKcS1_S1_S1_i
   fun:_ZN14StDbServerImpl11addDataBaseE8StDbType10StDbDomain
   fun:_ZN15StDbManagerImpl10findServerE8StDbType10StDbDomain
   fun:_ZN15StDbManagerImpl6findDbE8StDbType10StDbDomain
   fun:_ZN18StDbConfigNodeImpl9buildTreeEi
   fun:_ZN15StDbManagerImpl10initConfigE8StDbType10StDbDomainPKci
   fun:_ZN15StDbManagerImpl10initConfigEPKcS1_i
   fun:_ZN10StDbBroker10InitConfigEPKcRiPc
   fun:_ZN11St_db_Maker9OpenMySQLEPKc
   fun:_ZN11St_db_Maker4InitEv
   fun:_ZN7StMaker4InitEv
   fun:_ZN7StChain4InitEv
   fun:_ZN9StBFChain4InitEv
   fun:_ZL23G__StChain_Cint_572_0_6P8G__valuePKcP8G__parami
   fun:_ZN4Cint19G__ExceptionWrapperEPFiP8G__valuePKcP8G__paramiES1_PcS5_i
   fun:G__execute_call
}
{
   Memcheck:Value4
   fun:cli_read_rows
   obj:/usr/lib/mysql/libmysqlclient.so.16.0.0
   fun:mysql_real_query
   fun:mysql_query
   fun:_ZN7MysqlDb9reConnectEv
   fun:_ZN7MysqlDb7ConnectEPKcS1_S1_S1_i
   fun:_ZN14StDbServerImpl11addDataBaseE8StDbType10StDbDomain
   fun:_ZN15StDbManagerImpl10findServerE8StDbType10StDbDomain
   fun:_ZN15StDbManagerImpl6findDbE8StDbType10StDbDomain
   fun:_ZN18StDbConfigNodeImpl9buildTreeEi
   fun:_ZN15StDbManagerImpl10initConfigE8StDbType10StDbDomainPKci
   fun:_ZN15StDbManagerImpl10initConfigEPKcS1_i
   fun:_ZN10StDbBroker10InitConfigEPKcRiPc
   fun:_ZN11St_db_Maker9OpenMySQLEPKc
   fun:_ZN11St_db_Maker4InitEv
   fun:_ZN7StMaker4InitEv
   fun:_ZN7StChain4InitEv
   fun:_ZN9StBFChain4InitEv
   fun:_ZL23G__StChain_Cint_572_0_6P8G__valuePKcP8G__parami
   fun:_ZN4Cint19G__ExceptionWrapperEPFiP8G__valuePKcP8G__paramiES1_PcS5_i
   fun:G__execute_call
}
{
   Memcheck:Cond
   fun:alloc_root
   fun:cli_read_rows
   obj:/usr/lib/mysql/libmysqlclient.so.16.0.0
   fun:mysql_real_query
   fun:mysql_query
   fun:_ZN7MysqlDb9reConnectEv
   fun:_ZN7MysqlDb7ConnectEPKcS1_S1_S1_i
   fun:_ZN14StDbServerImpl11addDataBaseE8StDbType10StDbDomain
   fun:_ZN15StDbManagerImpl10findServerE8StDbType10StDbDomain
   fun:_ZN15StDbManagerImpl6findDbE8StDbType10StDbDomain
   fun:_ZN18StDbConfigNodeImpl9buildTreeEi
   fun:_ZN15StDbManagerImpl10initConfigE8StDbType10StDbDomainPKci
   fun:_ZN15StDbManagerImpl10initConfigEPKcS1_i
   fun:_ZN10StDbBroker10InitConfigEPKcRiPc
   fun:_ZN11St_db_Maker9OpenMySQLEPKc
   fun:_ZN11St_db_Maker4InitEv
   fun:_ZN7StMaker4InitEv
   fun:_ZN7StChain4InitEv
   fun:_ZN9StBFChain4InitEv
   fun:_ZL23G__StChain_Cint_572_0_6P8G__valuePKcP8G__parami
   fun:_ZN4Cint19G__ExceptionWrapperEPFiP8G__valuePKcP8G__paramiES1_PcS5_i
   fun:G__execute_call
}
{
   Memcheck:Value4
   fun:net_field_length
   fun:cli_read_rows
   obj:/usr/lib/mysql/libmysqlclient.so.16.0.0
   fun:mysql_real_query
   fun:mysql_query
   fun:_ZN7MysqlDb9reConnectEv
   fun:_ZN7MysqlDb7ConnectEPKcS1_S1_S1_i
   fun:_ZN14StDbServerImpl11addDataBaseE8StDbType10StDbDomain
   fun:_ZN15StDbManagerImpl10findServerE8StDbType10StDbDomain
   fun:_ZN15StDbManagerImpl6findDbE8StDbType10StDbDomain
   fun:_ZN18StDbConfigNodeImpl9buildTreeEi
   fun:_ZN15StDbManagerImpl10initConfigE8StDbType10StDbDomainPKci
   fun:_ZN15StDbManagerImpl10initConfigEPKcS1_i
   fun:_ZN10StDbBroker10InitConfigEPKcRiPc
   fun:_ZN11St_db_Maker9OpenMySQLEPKc
   fun:_ZN11St_db_Maker4InitEv
   fun:_ZN7StMaker4InitEv
   fun:_ZN7StChain4InitEv
   fun:_ZN9StBFChain4InitEv
   fun:_ZL23G__StChain_Cint_572_0_6P8G__valuePKcP8G__parami
   fun:_ZN4Cint19G__ExceptionWrapperEPFiP8G__valuePKcP8G__paramiES1_PcS5_i
   fun:G__execute_call
}
{
   Memcheck:Cond
   fun:memcpy
   fun:cli_read_rows
   obj:/usr/lib/mysql/libmysqlclient.so.16.0.0
   fun:mysql_real_query
   fun:mysql_query
   fun:_ZN7MysqlDb9reConnectEv
   fun:_ZN7MysqlDb7ConnectEPKcS1_S1_S1_i
   fun:_ZN14StDbServerImpl11addDataBaseE8StDbType10StDbDomain
   fun:_ZN15StDbManagerImpl10findServerE8StDbType10StDbDomain
   fun:_ZN15StDbManagerImpl6findDbE8StDbType10StDbDomain
   fun:_ZN18StDbConfigNodeImpl9buildTreeEi
   fun:_ZN15StDbManagerImpl10initConfigE8StDbType10StDbDomainPKci
   fun:_ZN15StDbManagerImpl10initConfigEPKcS1_i
   fun:_ZN10StDbBroker10InitConfigEPKcRiPc
   fun:_ZN11St_db_Maker9OpenMySQLEPKc
   fun:_ZN11St_db_Maker4InitEv
   fun:_ZN7StMaker4InitEv
   fun:_ZN7StChain4InitEv
   fun:_ZN9StBFChain4InitEv
   fun:_ZL23G__StChain_Cint_572_0_6P8G__valuePKcP8G__parami
   fun:_ZN4Cint19G__ExceptionWrapperEPFiP8G__valuePKcP8G__paramiES1_PcS5_i
   fun:G__execute_call
}
{
   Memcheck:Value4
   fun:memcpy
   fun:cli_read_rows
   obj:/usr/lib/mysql/libmysqlclient.so.16.0.0
   fun:mysql_real_query
   fun:mysql_query
   fun:_ZN7MysqlDb9reConnectEv
   fun:_ZN7MysqlDb7ConnectEPKcS1_S1_S1_i
   fun:_ZN14StDbServerImpl11addDataBaseE8StDbType10StDbDomain
   fun:_ZN15StDbManagerImpl10findServerE8StDbType10StDbDomain
   fun:_ZN15StDbManagerImpl6findDbE8StDbType10StDbDomain
   fun:_ZN18StDbConfigNodeImpl9buildTreeEi
   fun:_ZN15StDbManagerImpl10initConfigE8StDbType10StDbDomainPKci
   fun:_ZN15StDbManagerImpl10initConfigEPKcS1_i
   fun:_ZN10StDbBroker10InitConfigEPKcRiPc
   fun:_ZN11St_db_Maker9OpenMySQLEPKc
   fun:_ZN11St_db_Maker4InitEv
   fun:_ZN7StMaker4InitEv
   fun:_ZN7StChain4InitEv
   fun:_ZN9StBFChain4InitEv
   fun:_ZL23G__StChain_Cint_572_0_6P8G__valuePKcP8G__parami
   fun:_ZN4Cint19G__ExceptionWrapperEPFiP8G__valuePKcP8G__paramiES1_PcS5_i
   fun:G__execute_call
}
{
   Memcheck:Cond
   fun:unpack_fields
   obj:/usr/lib/mysql/libmysqlclient.so.16.0.0
   fun:mysql_real_query
   fun:mysql_query
   fun:_ZN7MysqlDb9reConnectEv
   fun:_ZN7MysqlDb7ConnectEPKcS1_S1_S1_i
   fun:_ZN14StDbServerImpl11addDataBaseE8StDbType10StDbDomain
   fun:_ZN15StDbManagerImpl10findServerE8StDbType10StDbDomain
   fun:_ZN15StDbManagerImpl6findDbE8StDbType10StDbDomain
   fun:_ZN18StDbConfigNodeImpl9buildTreeEi
   fun:_ZN15StDbManagerImpl10initConfigE8StDbType10StDbDomainPKci
   fun:_ZN15StDbManagerImpl10initConfigEPKcS1_i
   fun:_ZN10StDbBroker10InitConfigEPKcRiPc
   fun:_ZN11St_db_Maker9OpenMySQLEPKc
   fun:_ZN11St_db_Maker4InitEv
   fun:_ZN7StMaker4InitEv
   fun:_ZN7StChain4InitEv
   fun:_ZN9StBFChain4InitEv
   fun:_ZL23G__StChain_Cint_572_0_6P8G__valuePKcP8G__parami
   fun:_ZN4Cint19G__ExceptionWrapperEPFiP8G__valuePKcP8G__paramiES1_PcS5_i
   fun:G__execute_call
}
{
   Memcheck:Value4
   fun:unpack_fields
   obj:/usr/lib/mysql/libmysqlclient.so.16.0.0
   fun:mysql_real_query
   fun:mysql_query
   fun:_ZN7MysqlDb9reConnectEv
   fun:_ZN7MysqlDb7ConnectEPKcS1_S1_S1_i
   fun:_ZN14StDbServerImpl11addDataBaseE8StDbType10StDbDomain
   fun:_ZN15StDbManagerImpl10findServerE8StDbType10StDbDomain
   fun:_ZN15StDbManagerImpl6findDbE8StDbType10StDbDomain
   fun:_ZN18StDbConfigNodeImpl9buildTreeEi
   fun:_ZN15StDbManagerImpl10initConfigE8StDbType10StDbDomainPKci
   fun:_ZN15StDbManagerImpl10initConfigEPKcS1_i
   fun:_ZN10StDbBroker10InitConfigEPKcRiPc
   fun:_ZN11St_db_Maker9OpenMySQLEPKc
   fun:_ZN11St_db_Maker4InitEv
   fun:_ZN7StMaker4InitEv
   fun:_ZN7StChain4InitEv
   fun:_ZN9StBFChain4InitEv
   fun:_ZL23G__StChain_Cint_572_0_6P8G__valuePKcP8G__parami
   fun:_ZN4Cint19G__ExceptionWrapperEPFiP8G__valuePKcP8G__paramiES1_PcS5_i
   fun:G__execute_call
}
{
   Memcheck:Cond
   fun:alloc_root
   fun:strmake_root
   fun:unpack_fields
   obj:/usr/lib/mysql/libmysqlclient.so.16.0.0
   fun:mysql_real_query
   fun:mysql_query
   fun:_ZN7MysqlDb9reConnectEv
   fun:_ZN7MysqlDb7ConnectEPKcS1_S1_S1_i
   fun:_ZN14StDbServerImpl11addDataBaseE8StDbType10StDbDomain
   fun:_ZN15StDbManagerImpl10findServerE8StDbType10StDbDomain
   fun:_ZN15StDbManagerImpl6findDbE8StDbType10StDbDomain
   fun:_ZN18StDbConfigNodeImpl9buildTreeEi
   fun:_ZN15StDbManagerImpl10initConfigE8StDbType10StDbDomainPKci
   fun:_ZN15StDbManagerImpl10initConfigEPKcS1_i
   fun:_ZN10StDbBroker10InitConfigEPKcRiPc
   fun:_ZN11St_db_Maker9OpenMySQLEPKc
   fun:_ZN11St_db_Maker4InitEv
   fun:_ZN7StMaker4InitEv
   fun:_ZN7StChain4InitEv
   fun:_ZN9StBFChain4InitEv
   fun:_ZL23G__StChain_Cint_572_0_6P8G__valuePKcP8G__parami
   fun:_ZN4Cint19G__ExceptionWrapperEPFiP8G__valuePKcP8G__paramiES1_PcS5_i
   fun:G__execute_call
}
{
   Memcheck:Cond
   fun:memcpy
   fun:strmake_root
   fun:unpack_fields
   obj:/usr/lib/mysql/libmysqlclient.so.16.0.0
   fun:mysql_real_query
   fun:mysql_query
   fun:_ZN7MysqlDb9reConnectEv
   fun:_ZN7MysqlDb7ConnectEPKcS1_S1_S1_i
   fun:_ZN14StDbServerImpl11addDataBaseE8StDbType10StDbDomain
   fun:_ZN15StDbManagerImpl10findServerE8StDbType10StDbDomain
   fun:_ZN15StDbManagerImpl6findDbE8StDbType10StDbDomain
   fun:_ZN18StDbConfigNodeImpl9buildTreeEi
   fun:_ZN15StDbManagerImpl10initConfigE8StDbType10StDbDomainPKci
   fun:_ZN15StDbManagerImpl10initConfigEPKcS1_i
   fun:_ZN10StDbBroker10InitConfigEPKcRiPc
   fun:_ZN11St_db_Maker9OpenMySQLEPKc
   fun:_ZN11St_db_Maker4InitEv
   fun:_ZN7StMaker4InitEv
   fun:_ZN7StChain4InitEv
   fun:_ZN9StBFChain4InitEv
   fun:_ZL23G__StChain_Cint_572_0_6P8G__valuePKcP8G__parami
   fun:_ZN4Cint19G__ExceptionWrapperEPFiP8G__valuePKcP8G__paramiES1_PcS5_i
   fun:G__execute_call
}
{
   Memcheck:Value4
   fun:memcpy
   fun:strmake_root
   fun:unpack_fields
   obj:/usr/lib/mysql/libmysqlclient.so.16.0.0
   fun:mysql_real_query
   fun:mysql_query
   fun:_ZN7MysqlDb9reConnectEv
   fun:_ZN7MysqlDb7ConnectEPKcS1_S1_S1_i
   fun:_ZN14StDbServerImpl11addDataBaseE8StDbType10StDbDomain
   fun:_ZN15StDbManagerImpl10findServerE8StDbType10StDbDomain
   fun:_ZN15StDbManagerImpl6findDbE8StDbType10StDbDomain
   fun:_ZN18StDbConfigNodeImpl9buildTreeEi
   fun:_ZN15StDbManagerImpl10initConfigE8StDbType10StDbDomainPKci
   fun:_ZN15StDbManagerImpl10initConfigEPKcS1_i
   fun:_ZN10StDbBroker10InitConfigEPKcRiPc
   fun:_ZN11St_db_Maker9OpenMySQLEPKc
   fun:_ZN11St_db_Maker4InitEv
   fun:_ZN7StMaker4InitEv
   fun:_ZN7StChain4InitEv
   fun:_ZN9StBFChain4InitEv
   fun:_ZL23G__StChain_Cint_572_0_6P8G__valuePKcP8G__parami
   fun:_ZN4Cint19G__ExceptionWrapperEPFiP8G__valuePKcP8G__paramiES1_PcS5_i
   fun:G__execute_call
}
{
   Memcheck:Value4
   fun:strmake_root
   fun:unpack_fields
   obj:/usr/lib/mysql/libmysqlclient.so.16.0.0
   fun:mysql_real_query
   fun:mysql_query
   fun:_ZN7MysqlDb9reConnectEv
   fun:_ZN7MysqlDb7ConnectEPKcS1_S1_S1_i
   fun:_ZN14StDbServerImpl11addDataBaseE8StDbType10StDbDomain
   fun:_ZN15StDbManagerImpl10findServerE8StDbType10StDbDomain
   fun:_ZN15StDbManagerImpl6findDbE8StDbType10StDbDomain
   fun:_ZN18StDbConfigNodeImpl9buildTreeEi
   fun:_ZN15StDbManagerImpl10initConfigE8StDbType10StDbDomainPKci
   fun:_ZN15StDbManagerImpl10initConfigEPKcS1_i
   fun:_ZN10StDbBroker10InitConfigEPKcRiPc
   fun:_ZN11St_db_Maker9OpenMySQLEPKc
   fun:_ZN11St_db_Maker4InitEv
   fun:_ZN7StMaker4InitEv
   fun:_ZN7StChain4InitEv
   fun:_ZN9StBFChain4InitEv
   fun:_ZL23G__StChain_Cint_572_0_6P8G__valuePKcP8G__parami
   fun:_ZN4Cint19G__ExceptionWrapperEPFiP8G__valuePKcP8G__paramiES1_PcS5_i
   fun:G__execute_call
}
{
   Memcheck:Cond
   fun:strmake_root
   fun:unpack_fields
   obj:/usr/lib/mysql/libmysqlclient.so.16.0.0
   fun:mysql_real_query
   fun:mysql_query
   fun:_ZN7MysqlDb9reConnectEv
   fun:_ZN7MysqlDb7ConnectEPKcS1_S1_S1_i
   fun:_ZN14StDbServerImpl11addDataBaseE8StDbType10StDbDomain
   fun:_ZN15StDbManagerImpl10findServerE8StDbType10StDbDomain
   fun:_ZN15StDbManagerImpl6findDbE8StDbType10StDbDomain
   fun:_ZN18StDbConfigNodeImpl9buildTreeEi
   fun:_ZN15StDbManagerImpl10initConfigE8StDbType10StDbDomainPKci
   fun:_ZN15StDbManagerImpl10initConfigEPKcS1_i
   fun:_ZN10StDbBroker10InitConfigEPKcRiPc
   fun:_ZN11St_db_Maker9OpenMySQLEPKc
   fun:_ZN11St_db_Maker4InitEv
   fun:_ZN7StMaker4InitEv
   fun:_ZN7StChain4InitEv
   fun:_ZN9StBFChain4InitEv
   fun:_ZL23G__StChain_Cint_572_0_6P8G__valuePKcP8G__parami
   fun:_ZN4Cint19G__ExceptionWrapperEPFiP8G__valuePKcP8G__paramiES1_PcS5_i
   fun:G__execute_call
}
{
   Memcheck:Cond
   fun:cli_read_rows
   fun:mysql_store_result
   fun:_ZN7MysqlDb9reConnectEv
   fun:_ZN7MysqlDb7ConnectEPKcS1_S1_S1_i
   fun:_ZN14StDbServerImpl11addDataBaseE8StDbType10StDbDomain
   fun:_ZN15StDbManagerImpl10findServerE8StDbType10StDbDomain
   fun:_ZN15StDbManagerImpl6findDbE8StDbType10StDbDomain
   fun:_ZN18StDbConfigNodeImpl9buildTreeEi
   fun:_ZN15StDbManagerImpl10initConfigE8StDbType10StDbDomainPKci
   fun:_ZN15StDbManagerImpl10initConfigEPKcS1_i
   fun:_ZN10StDbBroker10InitConfigEPKcRiPc
   fun:_ZN11St_db_Maker9OpenMySQLEPKc
   fun:_ZN11St_db_Maker4InitEv
   fun:_ZN7StMaker4InitEv
   fun:_ZN7StChain4InitEv
   fun:_ZN9StBFChain4InitEv
   fun:_ZL23G__StChain_Cint_572_0_6P8G__valuePKcP8G__parami
   fun:_ZN4Cint19G__ExceptionWrapperEPFiP8G__valuePKcP8G__paramiES1_PcS5_i
   fun:G__execute_call
}
{
   Memcheck:Value4
   fun:cli_read_rows
   fun:mysql_store_result
   fun:_ZN7MysqlDb9reConnectEv
   fun:_ZN7MysqlDb7ConnectEPKcS1_S1_S1_i
   fun:_ZN14StDbServerImpl11addDataBaseE8StDbType10StDbDomain
   fun:_ZN15StDbManagerImpl10findServerE8StDbType10StDbDomain
   fun:_ZN15StDbManagerImpl6findDbE8StDbType10StDbDomain
   fun:_ZN18StDbConfigNodeImpl9buildTreeEi
   fun:_ZN15StDbManagerImpl10initConfigE8StDbType10StDbDomainPKci
   fun:_ZN15StDbManagerImpl10initConfigEPKcS1_i
   fun:_ZN10StDbBroker10InitConfigEPKcRiPc
   fun:_ZN11St_db_Maker9OpenMySQLEPKc
   fun:_ZN11St_db_Maker4InitEv
   fun:_ZN7StMaker4InitEv
   fun:_ZN7StChain4InitEv
   fun:_ZN9StBFChain4InitEv
   fun:_ZL23G__StChain_Cint_572_0_6P8G__valuePKcP8G__parami
   fun:_ZN4Cint19G__ExceptionWrapperEPFiP8G__valuePKcP8G__paramiES1_PcS5_i
   fun:G__execute_call
}
{
   Memcheck:Cond
   fun:my_net_read
   fun:cli_safe_read
   fun:cli_advanced_command
   fun:mysql_select_db
   fun:_ZN7MysqlDb12setDefaultDbEPKc
   fun:_ZN7StDbSql3useEv
   fun:_ZN14StDbServerImpl11addDataBaseE8StDbType10StDbDomain
   fun:_ZN15StDbManagerImpl10findServerE8StDbType10StDbDomain
   fun:_ZN15StDbManagerImpl6findDbE8StDbType10StDbDomain
   fun:_ZN18StDbConfigNodeImpl9buildTreeEi
   fun:_ZN15StDbManagerImpl10initConfigE8StDbType10StDbDomainPKci
   fun:_ZN15StDbManagerImpl10initConfigEPKcS1_i
   fun:_ZN10StDbBroker10InitConfigEPKcRiPc
   fun:_ZN11St_db_Maker9OpenMySQLEPKc
   fun:_ZN11St_db_Maker4InitEv
   fun:_ZN7StMaker4InitEv
   fun:_ZN7StChain4InitEv
   fun:_ZN9StBFChain4InitEv
   fun:_ZL23G__StChain_Cint_572_0_6P8G__valuePKcP8G__parami
   fun:_ZN4Cint19G__ExceptionWrapperEPFiP8G__valuePKcP8G__paramiES1_PcS5_i
   fun:G__execute_call
}
{
   Memcheck:Cond
   fun:cli_safe_read
   fun:cli_advanced_command
   fun:mysql_select_db
   fun:_ZN7MysqlDb12setDefaultDbEPKc
   fun:_ZN7StDbSql3useEv
   fun:_ZN14StDbServerImpl11addDataBaseE8StDbType10StDbDomain
   fun:_ZN15StDbManagerImpl10findServerE8StDbType10StDbDomain
   fun:_ZN15StDbManagerImpl6findDbE8StDbType10StDbDomain
   fun:_ZN18StDbConfigNodeImpl9buildTreeEi
   fun:_ZN15StDbManagerImpl10initConfigE8StDbType10StDbDomainPKci
   fun:_ZN15StDbManagerImpl10initConfigEPKcS1_i
   fun:_ZN10StDbBroker10InitConfigEPKcRiPc
   fun:_ZN11St_db_Maker9OpenMySQLEPKc
   fun:_ZN11St_db_Maker4InitEv
   fun:_ZN7StMaker4InitEv
   fun:_ZN7StChain4InitEv
   fun:_ZN9StBFChain4InitEv
   fun:_ZL23G__StChain_Cint_572_0_6P8G__valuePKcP8G__parami
   fun:_ZN4Cint19G__ExceptionWrapperEPFiP8G__valuePKcP8G__paramiES1_PcS5_i
   fun:G__execute_call
}
{
   Memcheck:Cond
   fun:mysql_select_db
   fun:_ZN7MysqlDb12setDefaultDbEPKc
   fun:_ZN7StDbSql3useEv
   fun:_ZN14StDbServerImpl11addDataBaseE8StDbType10StDbDomain
   fun:_ZN15StDbManagerImpl10findServerE8StDbType10StDbDomain
   fun:_ZN15StDbManagerImpl6findDbE8StDbType10StDbDomain
   fun:_ZN18StDbConfigNodeImpl9buildTreeEi
   fun:_ZN15StDbManagerImpl10initConfigE8StDbType10StDbDomainPKci
   fun:_ZN15StDbManagerImpl10initConfigEPKcS1_i
   fun:_ZN10StDbBroker10InitConfigEPKcRiPc
   fun:_ZN11St_db_Maker9OpenMySQLEPKc
   fun:_ZN11St_db_Maker4InitEv
   fun:_ZN7StMaker4InitEv
   fun:_ZN7StChain4InitEv
   fun:_ZN9StBFChain4InitEv
   fun:_ZL23G__StChain_Cint_572_0_6P8G__valuePKcP8G__parami
   fun:_ZN4Cint19G__ExceptionWrapperEPFiP8G__valuePKcP8G__paramiES1_PcS5_i
   fun:G__execute_call
}
{
   Memcheck:Cond
   fun:_ZN7MysqlDb12setDefaultDbEPKc
   fun:_ZN7StDbSql3useEv
   fun:_ZN14StDbServerImpl11addDataBaseE8StDbType10StDbDomain
   fun:_ZN15StDbManagerImpl10findServerE8StDbType10StDbDomain
   fun:_ZN15StDbManagerImpl6findDbE8StDbType10StDbDomain
   fun:_ZN18StDbConfigNodeImpl9buildTreeEi
   fun:_ZN15StDbManagerImpl10initConfigE8StDbType10StDbDomainPKci
   fun:_ZN15StDbManagerImpl10initConfigEPKcS1_i
   fun:_ZN10StDbBroker10InitConfigEPKcRiPc
   fun:_ZN11St_db_Maker9OpenMySQLEPKc
   fun:_ZN11St_db_Maker4InitEv
   fun:_ZN7StMaker4InitEv
   fun:_ZN7StChain4InitEv
   fun:_ZN9StBFChain4InitEv
   fun:_ZL23G__StChain_Cint_572_0_6P8G__valuePKcP8G__parami
   fun:_ZN4Cint19G__ExceptionWrapperEPFiP8G__valuePKcP8G__paramiES1_PcS5_i
   fun:G__execute_call
}
{
   Memcheck:Value4
   fun:ssl3_cbc_copy_mac
   fun:ssl3_read_bytes
   obj:/usr/lib/libssl.so.1.0.0
   fun:SSL_read
   fun:vio_ssl_read
   obj:/usr/lib/mysql/libmysqlclient.so.16.0.0
   fun:my_net_read
   fun:cli_safe_read
   obj:/usr/lib/mysql/libmysqlclient.so.16.0.0
   fun:mysql_real_query
   fun:_ZN7MysqlDb9ExecQueryEv
   fun:_ZN7MysqlDblsEPKc
   fun:_ZN7StDbSql9queryNodeEP8StDbNode
   fun:_ZN7StDbSql11prepareNodeEP8StDbNode
   fun:_ZN7StDbSql7QueryDbEP14StDbConfigNode
   fun:_ZN18StDbConfigNodeImpl9buildTreeEi
   fun:_ZN15StDbManagerImpl10initConfigE8StDbType10StDbDomainPKci
   fun:_ZN15StDbManagerImpl10initConfigEPKcS1_i
   fun:_ZN10StDbBroker10InitConfigEPKcRiPc
   fun:_ZN11St_db_Maker9OpenMySQLEPKc
   fun:_ZN11St_db_Maker4InitEv
   fun:_ZN7StMaker4InitEv
   fun:_ZN7StChain4InitEv
   fun:_ZN9StBFChain4InitEv
}
{
   Memcheck:Cond
   fun:inflate
   fun:uncompress
   fun:my_uncompress
   fun:my_net_read
   fun:cli_safe_read
   obj:/usr/lib/mysql/libmysqlclient.so.16.0.0
   fun:mysql_real_query
   fun:_ZN7MysqlDb9ExecQueryEv
   fun:_ZN7MysqlDblsEPKc
   fun:_ZN7StDbSql9queryNodeEP8StDbNode
   fun:_ZN7StDbSql11prepareNodeEP8StDbNode
   fun:_ZN7StDbSql7QueryDbEP14StDbConfigNode
   fun:_ZN18StDbConfigNodeImpl9buildTreeEi
   fun:_ZN15StDbManagerImpl10initConfigE8StDbType10StDbDomainPKci
   fun:_ZN15StDbManagerImpl10initConfigEPKcS1_i
   fun:_ZN10StDbBroker10InitConfigEPKcRiPc
   fun:_ZN11St_db_Maker9OpenMySQLEPKc
   fun:_ZN11St_db_Maker4InitEv
   fun:_ZN7StMaker4InitEv
   fun:_ZN7StChain4InitEv
   fun:_ZN9StBFChain4InitEv
   fun:_ZL23G__StChain_Cint_572_0_6P8G__valuePKcP8G__parami
   fun:_ZN4Cint19G__ExceptionWrapperEPFiP8G__valuePKcP8G__paramiES1_PcS5_i
   fun:G__execute_call
}
{
   Memcheck:Value4
   fun:inflate_table
   fun:inflate
   fun:uncompress
   fun:my_uncompress
   fun:my_net_read
   fun:cli_safe_read
   obj:/usr/lib/mysql/libmysqlclient.so.16.0.0
   fun:mysql_real_query
   fun:_ZN7MysqlDb9ExecQueryEv
   fun:_ZN7MysqlDblsEPKc
   fun:_ZN7StDbSql9queryNodeEP8StDbNode
   fun:_ZN7StDbSql11prepareNodeEP8StDbNode
   fun:_ZN7StDbSql7QueryDbEP14StDbConfigNode
   fun:_ZN18StDbConfigNodeImpl9buildTreeEi
   fun:_ZN15StDbManagerImpl10initConfigE8StDbType10StDbDomainPKci
   fun:_ZN15StDbManagerImpl10initConfigEPKcS1_i
   fun:_ZN10StDbBroker10InitConfigEPKcRiPc
   fun:_ZN11St_db_Maker9OpenMySQLEPKc
   fun:_ZN11St_db_Maker4InitEv
   fun:_ZN7StMaker4InitEv
   fun:_ZN7StChain4InitEv
   fun:_ZN9StBFChain4InitEv
   fun:_ZL23G__StChain_Cint_572_0_6P8G__valuePKcP8G__parami
   fun:_ZN4Cint19G__ExceptionWrapperEPFiP8G__valuePKcP8G__paramiES1_PcS5_i
}
{
   Memcheck:Cond
   fun:inflate_table
   fun:inflate
   fun:uncompress
   fun:my_uncompress
   fun:my_net_read
   fun:cli_safe_read
   obj:/usr/lib/mysql/libmysqlclient.so.16.0.0
   fun:mysql_real_query
   fun:_ZN7MysqlDb9ExecQueryEv
   fun:_ZN7MysqlDblsEPKc
   fun:_ZN7StDbSql9queryNodeEP8StDbNode
   fun:_ZN7StDbSql11prepareNodeEP8StDbNode
   fun:_ZN7StDbSql7QueryDbEP14StDbConfigNode
   fun:_ZN18StDbConfigNodeImpl9buildTreeEi
   fun:_ZN15StDbManagerImpl10initConfigE8StDbType10StDbDomainPKci
   fun:_ZN15StDbManagerImpl10initConfigEPKcS1_i
   fun:_ZN10StDbBroker10InitConfigEPKcRiPc
   fun:_ZN11St_db_Maker9OpenMySQLEPKc
   fun:_ZN11St_db_Maker4InitEv
   fun:_ZN7StMaker4InitEv
   fun:_ZN7StChain4InitEv
   fun:_ZN9StBFChain4InitEv
   fun:_ZL23G__StChain_Cint_572_0_6P8G__valuePKcP8G__parami
   fun:_ZN4Cint19G__ExceptionWrapperEPFiP8G__valuePKcP8G__paramiES1_PcS5_i
}
{
   Memcheck:Value4
   fun:inflate
   fun:uncompress
   fun:my_uncompress
   fun:my_net_read
   fun:cli_safe_read
   obj:/usr/lib/mysql/libmysqlclient.so.16.0.0
   fun:mysql_real_query
   fun:_ZN7MysqlDb9ExecQueryEv
   fun:_ZN7MysqlDblsEPKc
   fun:_ZN7StDbSql9queryNodeEP8StDbNode
   fun:_ZN7StDbSql11prepareNodeEP8StDbNode
   fun:_ZN7StDbSql7QueryDbEP14StDbConfigNode
   fun:_ZN18StDbConfigNodeImpl9buildTreeEi
   fun:_ZN15StDbManagerImpl10initConfigE8StDbType10StDbDomainPKci
   fun:_ZN15StDbManagerImpl10initConfigEPKcS1_i
   fun:_ZN10StDbBroker10InitConfigEPKcRiPc
   fun:_ZN11St_db_Maker9OpenMySQLEPKc
   fun:_ZN11St_db_Maker4InitEv
   fun:_ZN7StMaker4InitEv
   fun:_ZN7StChain4InitEv
   fun:_ZN9StBFChain4InitEv
   fun:_ZL23G__StChain_Cint_572_0_6P8G__valuePKcP8G__parami
   fun:_ZN4Cint19G__ExceptionWrapperEPFiP8G__valuePKcP8G__paramiES1_PcS5_i
   fun:G__execute_call
}
{
   Memcheck:Cond
   fun:inflate_fast
   fun:inflate
   fun:uncompress
   fun:my_uncompress
   fun:my_net_read
   fun:cli_safe_read
   obj:/usr/lib/mysql/libmysqlclient.so.16.0.0
   fun:mysql_real_query
   fun:_ZN7MysqlDb9ExecQueryEv
   fun:_ZN7MysqlDblsEPKc
   fun:_ZN7StDbSql9queryNodeEP8StDbNode
   fun:_ZN7StDbSql11prepareNodeEP8StDbNode
   fun:_ZN7StDbSql7QueryDbEP14StDbConfigNode
   fun:_ZN18StDbConfigNodeImpl9buildTreeEi
   fun:_ZN15StDbManagerImpl10initConfigE8StDbType10StDbDomainPKci
   fun:_ZN15StDbManagerImpl10initConfigEPKcS1_i
   fun:_ZN10StDbBroker10InitConfigEPKcRiPc
   fun:_ZN11St_db_Maker9OpenMySQLEPKc
   fun:_ZN11St_db_Maker4InitEv
   fun:_ZN7StMaker4InitEv
   fun:_ZN7StChain4InitEv
   fun:_ZN9StBFChain4InitEv
   fun:_ZL23G__StChain_Cint_572_0_6P8G__valuePKcP8G__parami
   fun:_ZN4Cint19G__ExceptionWrapperEPFiP8G__valuePKcP8G__paramiES1_PcS5_i
}
{
   Memcheck:Value4
   fun:inflate_fast
   fun:inflate
   fun:uncompress
   fun:my_uncompress
   fun:my_net_read
   fun:cli_safe_read
   obj:/usr/lib/mysql/libmysqlclient.so.16.0.0
   fun:mysql_real_query
   fun:_ZN7MysqlDb9ExecQueryEv
   fun:_ZN7MysqlDblsEPKc
   fun:_ZN7StDbSql9queryNodeEP8StDbNode
   fun:_ZN7StDbSql11prepareNodeEP8StDbNode
   fun:_ZN7StDbSql7QueryDbEP14StDbConfigNode
   fun:_ZN18StDbConfigNodeImpl9buildTreeEi
   fun:_ZN15StDbManagerImpl10initConfigE8StDbType10StDbDomainPKci
   fun:_ZN15StDbManagerImpl10initConfigEPKcS1_i
   fun:_ZN10StDbBroker10InitConfigEPKcRiPc
   fun:_ZN11St_db_Maker9OpenMySQLEPKc
   fun:_ZN11St_db_Maker4InitEv
   fun:_ZN7StMaker4InitEv
   fun:_ZN7StChain4InitEv
   fun:_ZN9StBFChain4InitEv
   fun:_ZL23G__StChain_Cint_572_0_6P8G__valuePKcP8G__parami
   fun:_ZN4Cint19G__ExceptionWrapperEPFiP8G__valuePKcP8G__paramiES1_PcS5_i
}
{
   Memcheck:Value4
   fun:cli_read_rows
   obj:/usr/lib/mysql/libmysqlclient.so.16.0.0
   fun:mysql_real_query
   fun:_ZN7MysqlDb9ExecQueryEv
   fun:_ZN7MysqlDblsEPKc
   fun:_ZN7StDbSql9queryNodeEP8StDbNode
   fun:_ZN7StDbSql11prepareNodeEP8StDbNode
   fun:_ZN7StDbSql7QueryDbEP14StDbConfigNode
   fun:_ZN18StDbConfigNodeImpl9buildTreeEi
   fun:_ZN15StDbManagerImpl10initConfigE8StDbType10StDbDomainPKci
   fun:_ZN15StDbManagerImpl10initConfigEPKcS1_i
   fun:_ZN10StDbBroker10InitConfigEPKcRiPc
   fun:_ZN11St_db_Maker9OpenMySQLEPKc
   fun:_ZN11St_db_Maker4InitEv
   fun:_ZN7StMaker4InitEv
   fun:_ZN7StChain4InitEv
   fun:_ZN9StBFChain4InitEv
   fun:_ZL23G__StChain_Cint_572_0_6P8G__valuePKcP8G__parami
   fun:_ZN4Cint19G__ExceptionWrapperEPFiP8G__valuePKcP8G__paramiES1_PcS5_i
   fun:G__execute_call
}
{
   Memcheck:Value4
   fun:memcpy
   fun:strmake_root
   fun:unpack_fields
   obj:/usr/lib/mysql/libmysqlclient.so.16.0.0
   fun:mysql_real_query
   fun:_ZN7MysqlDb9ExecQueryEv
   fun:_ZN7MysqlDblsEPKc
   fun:_ZN7StDbSql9queryNodeEP8StDbNode
   fun:_ZN7StDbSql11prepareNodeEP8StDbNode
   fun:_ZN7StDbSql7QueryDbEP14StDbConfigNode
   fun:_ZN18StDbConfigNodeImpl9buildTreeEi
   fun:_ZN15StDbManagerImpl10initConfigE8StDbType10StDbDomainPKci
   fun:_ZN15StDbManagerImpl10initConfigEPKcS1_i
   fun:_ZN10StDbBroker10InitConfigEPKcRiPc
   fun:_ZN11St_db_Maker9OpenMySQLEPKc
   fun:_ZN11St_db_Maker4InitEv
   fun:_ZN7StMaker4InitEv
   fun:_ZN7StChain4InitEv
   fun:_ZN9StBFChain4InitEv
   fun:_ZL23G__StChain_Cint_572_0_6P8G__valuePKcP8G__parami
   fun:_ZN4Cint19G__ExceptionWrapperEPFiP8G__valuePKcP8G__paramiES1_PcS5_i
   fun:G__execute_call
}
{
   Memcheck:Cond
   fun:memcpy
   fun:strmake_root
   fun:unpack_fields
   obj:/usr/lib/mysql/libmysqlclient.so.16.0.0
   fun:mysql_real_query
   fun:_ZN7MysqlDb9ExecQueryEv
   fun:_ZN7MysqlDblsEPKc
   fun:_ZN7StDbSql9queryNodeEP8StDbNode
   fun:_ZN7StDbSql11prepareNodeEP8StDbNode
   fun:_ZN7StDbSql7QueryDbEP14StDbConfigNode
   fun:_ZN18StDbConfigNodeImpl9buildTreeEi
   fun:_ZN15StDbManagerImpl10initConfigE8StDbType10StDbDomainPKci
   fun:_ZN15StDbManagerImpl10initConfigEPKcS1_i
   fun:_ZN10StDbBroker10InitConfigEPKcRiPc
   fun:_ZN11St_db_Maker9OpenMySQLEPKc
   fun:_ZN11St_db_Maker4InitEv
   fun:_ZN7StMaker4InitEv
   fun:_ZN7StChain4InitEv
   fun:_ZN9StBFChain4InitEv
   fun:_ZL23G__StChain_Cint_572_0_6P8G__valuePKcP8G__parami
   fun:_ZN4Cint19G__ExceptionWrapperEPFiP8G__valuePKcP8G__paramiES1_PcS5_i
   fun:G__execute_call
}
{
   Memcheck:Cond
   fun:strmake_root
   fun:unpack_fields
   obj:/usr/lib/mysql/libmysqlclient.so.16.0.0
   fun:mysql_real_query
   fun:_ZN7MysqlDb9ExecQueryEv
   fun:_ZN7MysqlDblsEPKc
   fun:_ZN7StDbSql9queryNodeEP8StDbNode
   fun:_ZN7StDbSql11prepareNodeEP8StDbNode
   fun:_ZN7StDbSql7QueryDbEP14StDbConfigNode
   fun:_ZN18StDbConfigNodeImpl9buildTreeEi
   fun:_ZN15StDbManagerImpl10initConfigE8StDbType10StDbDomainPKci
   fun:_ZN15StDbManagerImpl10initConfigEPKcS1_i
   fun:_ZN10StDbBroker10InitConfigEPKcRiPc
   fun:_ZN11St_db_Maker9OpenMySQLEPKc
   fun:_ZN11St_db_Maker4InitEv
   fun:_ZN7StMaker4InitEv
   fun:_ZN7StChain4InitEv
   fun:_ZN9StBFChain4InitEv
   fun:_ZL23G__StChain_Cint_572_0_6P8G__valuePKcP8G__parami
   fun:_ZN4Cint19G__ExceptionWrapperEPFiP8G__valuePKcP8G__paramiES1_PcS5_i
   fun:G__execute_call
}
{
   Memcheck:Cond
   fun:memcpy
   fun:cli_read_rows
   fun:mysql_store_result
   fun:_ZN7MysqlDb9ExecQueryEv
   fun:_ZN7MysqlDblsEPKc
   fun:_ZN7StDbSql9queryNodeEP8StDbNode
   fun:_ZN7StDbSql11prepareNodeEP8StDbNode
   fun:_ZN7StDbSql7QueryDbEP14StDbConfigNode
   fun:_ZN18StDbConfigNodeImpl9buildTreeEi
   fun:_ZN15StDbManagerImpl10initConfigE8StDbType10StDbDomainPKci
   fun:_ZN15StDbManagerImpl10initConfigEPKcS1_i
   fun:_ZN10StDbBroker10InitConfigEPKcRiPc
   fun:_ZN11St_db_Maker9OpenMySQLEPKc
   fun:_ZN11St_db_Maker4InitEv
   fun:_ZN7StMaker4InitEv
   fun:_ZN7StChain4InitEv
   fun:_ZN9StBFChain4InitEv
   fun:_ZL23G__StChain_Cint_572_0_6P8G__valuePKcP8G__parami
   fun:_ZN4Cint19G__ExceptionWrapperEPFiP8G__valuePKcP8G__paramiES1_PcS5_i
   fun:G__execute_call
}
{
   Memcheck:Value4
   fun:memcpy
   fun:cli_read_rows
   fun:mysql_store_result
   fun:_ZN7MysqlDb9ExecQueryEv
   fun:_ZN7MysqlDblsEPKc
   fun:_ZN7StDbSql9queryNodeEP8StDbNode
   fun:_ZN7StDbSql11prepareNodeEP8StDbNode
   fun:_ZN7StDbSql7QueryDbEP14StDbConfigNode
   fun:_ZN18StDbConfigNodeImpl9buildTreeEi
   fun:_ZN15StDbManagerImpl10initConfigE8StDbType10StDbDomainPKci
   fun:_ZN15StDbManagerImpl10initConfigEPKcS1_i
   fun:_ZN10StDbBroker10InitConfigEPKcRiPc
   fun:_ZN11St_db_Maker9OpenMySQLEPKc
   fun:_ZN11St_db_Maker4InitEv
   fun:_ZN7StMaker4InitEv
   fun:_ZN7StChain4InitEv
   fun:_ZN9StBFChain4InitEv
   fun:_ZL23G__StChain_Cint_572_0_6P8G__valuePKcP8G__parami
   fun:_ZN4Cint19G__ExceptionWrapperEPFiP8G__valuePKcP8G__paramiES1_PcS5_i
   fun:G__execute_call
}
{
   Memcheck:Value4
   fun:strcmp
   fun:_ZN10StDbBuffer8Find_ColEPKc
   fun:_ZN10StDbBuffer11WriteScalarEPKcS1_
   fun:_ZN7MysqlDb6OutputEP10StDbBuffer
   fun:_ZN7StDbSql9queryNodeEP8StDbNode
   fun:_ZN7StDbSql11prepareNodeEP8StDbNode
   fun:_ZN7StDbSql7QueryDbEP14StDbConfigNode
   fun:_ZN18StDbConfigNodeImpl9buildTreeEi
   fun:_ZN15StDbManagerImpl10initConfigE8StDbType10StDbDomainPKci
   fun:_ZN15StDbManagerImpl10initConfigEPKcS1_i
   fun:_ZN10StDbBroker10InitConfigEPKcRiPc
   fun:_ZN11St_db_Maker9OpenMySQLEPKc
   fun:_ZN11St_db_Maker4InitEv
   fun:_ZN7StMaker4InitEv
   fun:_ZN7StChain4InitEv
   fun:_ZN9StBFChain4InitEv
   fun:_ZL23G__StChain_Cint_572_0_6P8G__valuePKcP8G__parami
   fun:_ZN4Cint19G__ExceptionWrapperEPFiP8G__valuePKcP8G__paramiES1_PcS5_i
   fun:G__execute_call
}
{
   Memcheck:Value4
   fun:strlen
   fun:_ZN10StDbBuffer8AddFieldEPKc7myctypePKvi
   fun:_ZN10StDbBuffer11WriteScalarEPKcS1_
   fun:_ZN7MysqlDb6OutputEP10StDbBuffer
   fun:_ZN7StDbSql9queryNodeEP8StDbNode
   fun:_ZN7StDbSql11prepareNodeEP8StDbNode
   fun:_ZN7StDbSql7QueryDbEP14StDbConfigNode
   fun:_ZN18StDbConfigNodeImpl9buildTreeEi
   fun:_ZN15StDbManagerImpl10initConfigE8StDbType10StDbDomainPKci
   fun:_ZN15StDbManagerImpl10initConfigEPKcS1_i
   fun:_ZN10StDbBroker10InitConfigEPKcRiPc
   fun:_ZN11St_db_Maker9OpenMySQLEPKc
   fun:_ZN11St_db_Maker4InitEv
   fun:_ZN7StMaker4InitEv
   fun:_ZN7StChain4InitEv
   fun:_ZN9StBFChain4InitEv
   fun:_ZL23G__StChain_Cint_572_0_6P8G__valuePKcP8G__parami
   fun:_ZN4Cint19G__ExceptionWrapperEPFiP8G__valuePKcP8G__paramiES1_PcS5_i
   fun:G__execute_call
}
{
   Memcheck:Value4
   fun:strcpy
   fun:_ZN10StDbBuffer8AddFieldEPKc7myctypePKvi
   fun:_ZN10StDbBuffer11WriteScalarEPKcS1_
   fun:_ZN7MysqlDb6OutputEP10StDbBuffer
   fun:_ZN7StDbSql9queryNodeEP8StDbNode
   fun:_ZN7StDbSql11prepareNodeEP8StDbNode
   fun:_ZN7StDbSql7QueryDbEP14StDbConfigNode
   fun:_ZN18StDbConfigNodeImpl9buildTreeEi
   fun:_ZN15StDbManagerImpl10initConfigE8StDbType10StDbDomainPKci
   fun:_ZN15StDbManagerImpl10initConfigEPKcS1_i
   fun:_ZN10StDbBroker10InitConfigEPKcRiPc
   fun:_ZN11St_db_Maker9OpenMySQLEPKc
   fun:_ZN11St_db_Maker4InitEv
   fun:_ZN7StMaker4InitEv
   fun:_ZN7StChain4InitEv
   fun:_ZN9StBFChain4InitEv
   fun:_ZL23G__StChain_Cint_572_0_6P8G__valuePKcP8G__parami
   fun:_ZN4Cint19G__ExceptionWrapperEPFiP8G__valuePKcP8G__paramiES1_PcS5_i
   fun:G__execute_call
}
{
   Memcheck:Cond
   fun:strcpy
   fun:_ZN10StDbBuffer8AddFieldEPKc7myctypePKvi
   fun:_ZN10StDbBuffer11WriteScalarEPKcS1_
   fun:_ZN7MysqlDb6OutputEP10StDbBuffer
   fun:_ZN7StDbSql9queryNodeEP8StDbNode
   fun:_ZN7StDbSql11prepareNodeEP8StDbNode
   fun:_ZN7StDbSql7QueryDbEP14StDbConfigNode
   fun:_ZN18StDbConfigNodeImpl9buildTreeEi
   fun:_ZN15StDbManagerImpl10initConfigE8StDbType10StDbDomainPKci
   fun:_ZN15StDbManagerImpl10initConfigEPKcS1_i
   fun:_ZN10StDbBroker10InitConfigEPKcRiPc
   fun:_ZN11St_db_Maker9OpenMySQLEPKc
   fun:_ZN11St_db_Maker4InitEv
   fun:_ZN7StMaker4InitEv
   fun:_ZN7StChain4InitEv
   fun:_ZN9StBFChain4InitEv
   fun:_ZL23G__StChain_Cint_572_0_6P8G__valuePKcP8G__parami
   fun:_ZN4Cint19G__ExceptionWrapperEPFiP8G__valuePKcP8G__paramiES1_PcS5_i
   fun:G__execute_call
}
{
   Memcheck:Cond
   fun:ssl3_cbc_digest_record
   fun:tls1_mac
   fun:ssl3_read_bytes
   obj:/usr/lib/libssl.so.1.0.0
   fun:SSL_read
   fun:vio_ssl_read
   obj:/usr/lib/mysql/libmysqlclient.so.16.0.0
   fun:my_net_read
   fun:cli_safe_read
   obj:/usr/lib/mysql/libmysqlclient.so.16.0.0
   fun:mysql_real_query
   fun:_ZN7MysqlDb9ExecQueryEv
   fun:_ZN7MysqlDblsEPKc
   fun:_ZN7StDbSql7QueryDbEP14StDbConfigNode
   fun:_ZN18StDbConfigNodeImpl9buildTreeEi
   fun:_ZN15StDbManagerImpl10initConfigE8StDbType10StDbDomainPKci
   fun:_ZN15StDbManagerImpl10initConfigEPKcS1_i
   fun:_ZN10StDbBroker10InitConfigEPKcRiPc
   fun:_ZN11St_db_Maker9OpenMySQLEPKc
   fun:_ZN11St_db_Maker4InitEv
   fun:_ZN7StMaker4InitEv
   fun:_ZN7StChain4InitEv
   fun:_ZN9StBFChain4InitEv
   fun:_ZL23G__StChain_Cint_572_0_6P8G__valuePKcP8G__parami
}
{
   Memcheck:Value4
   fun:ssl3_cbc_digest_record
   fun:tls1_mac
   fun:ssl3_read_bytes
   obj:/usr/lib/libssl.so.1.0.0
   fun:SSL_read
   fun:vio_ssl_read
   obj:/usr/lib/mysql/libmysqlclient.so.16.0.0
   fun:my_net_read
   fun:cli_safe_read
   obj:/usr/lib/mysql/libmysqlclient.so.16.0.0
   fun:mysql_real_query
   fun:_ZN7MysqlDb9ExecQueryEv
   fun:_ZN7MysqlDblsEPKc
   fun:_ZN7StDbSql7QueryDbEP14StDbConfigNode
   fun:_ZN18StDbConfigNodeImpl9buildTreeEi
   fun:_ZN15StDbManagerImpl10initConfigE8StDbType10StDbDomainPKci
   fun:_ZN15StDbManagerImpl10initConfigEPKcS1_i
   fun:_ZN10StDbBroker10InitConfigEPKcRiPc
   fun:_ZN11St_db_Maker9OpenMySQLEPKc
   fun:_ZN11St_db_Maker4InitEv
   fun:_ZN7StMaker4InitEv
   fun:_ZN7StChain4InitEv
   fun:_ZN9StBFChain4InitEv
   fun:_ZL23G__StChain_Cint_572_0_6P8G__valuePKcP8G__parami
}
{
   Memcheck:Cond
   fun:inflate
   fun:uncompress
   fun:my_uncompress
   fun:my_net_read
   fun:cli_safe_read
   obj:/usr/lib/mysql/libmysqlclient.so.16.0.0
   fun:mysql_real_query
   fun:_ZN7MysqlDb9ExecQueryEv
   fun:_ZN7MysqlDblsEPKc
   fun:_ZN7StDbSql7QueryDbEP14StDbConfigNode
   fun:_ZN18StDbConfigNodeImpl9buildTreeEi
   fun:_ZN15StDbManagerImpl10initConfigE8StDbType10StDbDomainPKci
   fun:_ZN15StDbManagerImpl10initConfigEPKcS1_i
   fun:_ZN10StDbBroker10InitConfigEPKcRiPc
   fun:_ZN11St_db_Maker9OpenMySQLEPKc
   fun:_ZN11St_db_Maker4InitEv
   fun:_ZN7StMaker4InitEv
   fun:_ZN7StChain4InitEv
   fun:_ZN9StBFChain4InitEv
   fun:_ZL23G__StChain_Cint_572_0_6P8G__valuePKcP8G__parami
   fun:_ZN4Cint19G__ExceptionWrapperEPFiP8G__valuePKcP8G__paramiES1_PcS5_i
   fun:G__execute_call
}
{
   Memcheck:Cond
   fun:cli_read_rows
   fun:mysql_store_result
   fun:_ZN7MysqlDb9ExecQueryEv
   fun:_ZN7MysqlDblsEPKc
   fun:_ZN7StDbSql7QueryDbEP14StDbConfigNode
   fun:_ZN18StDbConfigNodeImpl9buildTreeEi
   fun:_ZN15StDbManagerImpl10initConfigE8StDbType10StDbDomainPKci
   fun:_ZN15StDbManagerImpl10initConfigEPKcS1_i
   fun:_ZN10StDbBroker10InitConfigEPKcRiPc
   fun:_ZN11St_db_Maker9OpenMySQLEPKc
   fun:_ZN11St_db_Maker4InitEv
   fun:_ZN7StMaker4InitEv
   fun:_ZN7StChain4InitEv
   fun:_ZN9StBFChain4InitEv
   fun:_ZL23G__StChain_Cint_572_0_6P8G__valuePKcP8G__parami
   fun:_ZN4Cint19G__ExceptionWrapperEPFiP8G__valuePKcP8G__paramiES1_PcS5_i
   fun:G__execute_call
}
{
   Memcheck:Value4
   fun:cli_read_rows
   fun:mysql_store_result
   fun:_ZN7MysqlDb9ExecQueryEv
   fun:_ZN7MysqlDblsEPKc
   fun:_ZN7StDbSql7QueryDbEP14StDbConfigNode
   fun:_ZN18StDbConfigNodeImpl9buildTreeEi
   fun:_ZN15StDbManagerImpl10initConfigE8StDbType10StDbDomainPKci
   fun:_ZN15StDbManagerImpl10initConfigEPKcS1_i
   fun:_ZN10StDbBroker10InitConfigEPKcRiPc
   fun:_ZN11St_db_Maker9OpenMySQLEPKc
   fun:_ZN11St_db_Maker4InitEv
   fun:_ZN7StMaker4InitEv
   fun:_ZN7StChain4InitEv
   fun:_ZN9StBFChain4InitEv
   fun:_ZL23G__StChain_Cint_572_0_6P8G__valuePKcP8G__parami
   fun:_ZN4Cint19G__ExceptionWrapperEPFiP8G__valuePKcP8G__paramiES1_PcS5_i
   fun:G__execute_call
}
{
   Memcheck:Value4
   fun:memcpy
   fun:cli_read_rows
   fun:mysql_store_result
   fun:_ZN7MysqlDb9ExecQueryEv
   fun:_ZN7MysqlDblsEPKc
   fun:_ZN7StDbSql7QueryDbEP14StDbConfigNode
   fun:_ZN18StDbConfigNodeImpl9buildTreeEi
   fun:_ZN15StDbManagerImpl10initConfigE8StDbType10StDbDomainPKci
   fun:_ZN15StDbManagerImpl10initConfigEPKcS1_i
   fun:_ZN10StDbBroker10InitConfigEPKcRiPc
   fun:_ZN11St_db_Maker9OpenMySQLEPKc
   fun:_ZN11St_db_Maker4InitEv
   fun:_ZN7StMaker4InitEv
   fun:_ZN7StChain4InitEv
   fun:_ZN9StBFChain4InitEv
   fun:_ZL23G__StChain_Cint_572_0_6P8G__valuePKcP8G__parami
   fun:_ZN4Cint19G__ExceptionWrapperEPFiP8G__valuePKcP8G__paramiES1_PcS5_i
   fun:G__execute_call
}
{
   Memcheck:Cond
   fun:mysql_fetch_row
   fun:_ZN7MysqlDb6OutputEP10StDbBuffer
   fun:_ZN7StDbSql7QueryDbEP14StDbConfigNode
   fun:_ZN18StDbConfigNodeImpl9buildTreeEi
   fun:_ZN15StDbManagerImpl10initConfigE8StDbType10StDbDomainPKci
   fun:_ZN15StDbManagerImpl10initConfigEPKcS1_i
   fun:_ZN10StDbBroker10InitConfigEPKcRiPc
   fun:_ZN11St_db_Maker9OpenMySQLEPKc
   fun:_ZN11St_db_Maker4InitEv
   fun:_ZN7StMaker4InitEv
   fun:_ZN7StChain4InitEv
   fun:_ZN9StBFChain4InitEv
   fun:_ZL23G__StChain_Cint_572_0_6P8G__valuePKcP8G__parami
   fun:_ZN4Cint19G__ExceptionWrapperEPFiP8G__valuePKcP8G__paramiES1_PcS5_i
   fun:G__execute_call
}
{
   Memcheck:Value4
   fun:mysql_fetch_row
   fun:_ZN7MysqlDb6OutputEP10StDbBuffer
   fun:_ZN7StDbSql7QueryDbEP14StDbConfigNode
   fun:_ZN18StDbConfigNodeImpl9buildTreeEi
   fun:_ZN15StDbManagerImpl10initConfigE8StDbType10StDbDomainPKci
   fun:_ZN15StDbManagerImpl10initConfigEPKcS1_i
   fun:_ZN10StDbBroker10InitConfigEPKcRiPc
   fun:_ZN11St_db_Maker9OpenMySQLEPKc
   fun:_ZN11St_db_Maker4InitEv
   fun:_ZN7StMaker4InitEv
   fun:_ZN7StChain4InitEv
   fun:_ZN9StBFChain4InitEv
   fun:_ZL23G__StChain_Cint_572_0_6P8G__valuePKcP8G__parami
   fun:_ZN4Cint19G__ExceptionWrapperEPFiP8G__valuePKcP8G__paramiES1_PcS5_i
   fun:G__execute_call
}
{
   Memcheck:Cond
   fun:_ZN7MysqlDb6OutputEP10StDbBuffer
   fun:_ZN7StDbSql7QueryDbEP14StDbConfigNode
   fun:_ZN18StDbConfigNodeImpl9buildTreeEi
   fun:_ZN15StDbManagerImpl10initConfigE8StDbType10StDbDomainPKci
   fun:_ZN15StDbManagerImpl10initConfigEPKcS1_i
   fun:_ZN10StDbBroker10InitConfigEPKcRiPc
   fun:_ZN11St_db_Maker9OpenMySQLEPKc
   fun:_ZN11St_db_Maker4InitEv
   fun:_ZN7StMaker4InitEv
   fun:_ZN7StChain4InitEv
   fun:_ZN9StBFChain4InitEv
   fun:_ZL23G__StChain_Cint_572_0_6P8G__valuePKcP8G__parami
   fun:_ZN4Cint19G__ExceptionWrapperEPFiP8G__valuePKcP8G__paramiES1_PcS5_i
   fun:G__execute_call
}
{
   Memcheck:Cond
   fun:mysql_fetch_lengths
   fun:_ZN7MysqlDb6OutputEP10StDbBuffer
   fun:_ZN7StDbSql7QueryDbEP14StDbConfigNode
   fun:_ZN18StDbConfigNodeImpl9buildTreeEi
   fun:_ZN15StDbManagerImpl10initConfigE8StDbType10StDbDomainPKci
   fun:_ZN15StDbManagerImpl10initConfigEPKcS1_i
   fun:_ZN10StDbBroker10InitConfigEPKcRiPc
   fun:_ZN11St_db_Maker9OpenMySQLEPKc
   fun:_ZN11St_db_Maker4InitEv
   fun:_ZN7StMaker4InitEv
   fun:_ZN7StChain4InitEv
   fun:_ZN9StBFChain4InitEv
   fun:_ZL23G__StChain_Cint_572_0_6P8G__valuePKcP8G__parami
   fun:_ZN4Cint19G__ExceptionWrapperEPFiP8G__valuePKcP8G__paramiES1_PcS5_i
   fun:G__execute_call
}
{
   Memcheck:Cond
   obj:/usr/lib/mysql/libmysqlclient.so.16.0.0
   fun:mysql_fetch_lengths
   fun:_ZN7MysqlDb6OutputEP10StDbBuffer
   fun:_ZN7StDbSql7QueryDbEP14StDbConfigNode
   fun:_ZN18StDbConfigNodeImpl9buildTreeEi
   fun:_ZN15StDbManagerImpl10initConfigE8StDbType10StDbDomainPKci
   fun:_ZN15StDbManagerImpl10initConfigEPKcS1_i
   fun:_ZN10StDbBroker10InitConfigEPKcRiPc
   fun:_ZN11St_db_Maker9OpenMySQLEPKc
   fun:_ZN11St_db_Maker4InitEv
   fun:_ZN7StMaker4InitEv
   fun:_ZN7StChain4InitEv
   fun:_ZN9StBFChain4InitEv
   fun:_ZL23G__StChain_Cint_572_0_6P8G__valuePKcP8G__parami
   fun:_ZN4Cint19G__ExceptionWrapperEPFiP8G__valuePKcP8G__paramiES1_PcS5_i
   fun:G__execute_call
}
{
   Memcheck:Value4
   obj:/usr/lib/mysql/libmysqlclient.so.16.0.0
   fun:mysql_fetch_lengths
   fun:_ZN7MysqlDb6OutputEP10StDbBuffer
   fun:_ZN7StDbSql7QueryDbEP14StDbConfigNode
   fun:_ZN18StDbConfigNodeImpl9buildTreeEi
   fun:_ZN15StDbManagerImpl10initConfigE8StDbType10StDbDomainPKci
   fun:_ZN15StDbManagerImpl10initConfigEPKcS1_i
   fun:_ZN10StDbBroker10InitConfigEPKcRiPc
   fun:_ZN11St_db_Maker9OpenMySQLEPKc
   fun:_ZN11St_db_Maker4InitEv
   fun:_ZN7StMaker4InitEv
   fun:_ZN7StChain4InitEv
   fun:_ZN9StBFChain4InitEv
   fun:_ZL23G__StChain_Cint_572_0_6P8G__valuePKcP8G__parami
   fun:_ZN4Cint19G__ExceptionWrapperEPFiP8G__valuePKcP8G__paramiES1_PcS5_i
   fun:G__execute_call
}
{
   Memcheck:Value4
   fun:_ZN7MysqlDb6OutputEP10StDbBuffer
   fun:_ZN7StDbSql7QueryDbEP14StDbConfigNode
   fun:_ZN18StDbConfigNodeImpl9buildTreeEi
   fun:_ZN15StDbManagerImpl10initConfigE8StDbType10StDbDomainPKci
   fun:_ZN15StDbManagerImpl10initConfigEPKcS1_i
   fun:_ZN10StDbBroker10InitConfigEPKcRiPc
   fun:_ZN11St_db_Maker9OpenMySQLEPKc
   fun:_ZN11St_db_Maker4InitEv
   fun:_ZN7StMaker4InitEv
   fun:_ZN7StChain4InitEv
   fun:_ZN9StBFChain4InitEv
   fun:_ZL23G__StChain_Cint_572_0_6P8G__valuePKcP8G__parami
   fun:_ZN4Cint19G__ExceptionWrapperEPFiP8G__valuePKcP8G__paramiES1_PcS5_i
   fun:G__execute_call
}
{
   Memcheck:Cond
   fun:_ZN10StDbBuffer11WriteScalarEPKcS1_
   fun:_ZN7MysqlDb6OutputEP10StDbBuffer
   fun:_ZN7StDbSql7QueryDbEP14StDbConfigNode
   fun:_ZN18StDbConfigNodeImpl9buildTreeEi
   fun:_ZN15StDbManagerImpl10initConfigE8StDbType10StDbDomainPKci
   fun:_ZN15StDbManagerImpl10initConfigEPKcS1_i
   fun:_ZN10StDbBroker10InitConfigEPKcRiPc
   fun:_ZN11St_db_Maker9OpenMySQLEPKc
   fun:_ZN11St_db_Maker4InitEv
   fun:_ZN7StMaker4InitEv
   fun:_ZN7StChain4InitEv
   fun:_ZN9StBFChain4InitEv
   fun:_ZL23G__StChain_Cint_572_0_6P8G__valuePKcP8G__parami
   fun:_ZN4Cint19G__ExceptionWrapperEPFiP8G__valuePKcP8G__paramiES1_PcS5_i
   fun:G__execute_call
}
{
   Memcheck:Value4
   fun:strlen
   fun:_ZN10StDbBuffer11WriteScalarEPKcS1_
   fun:_ZN7MysqlDb6OutputEP10StDbBuffer
   fun:_ZN7StDbSql7QueryDbEP14StDbConfigNode
   fun:_ZN18StDbConfigNodeImpl9buildTreeEi
   fun:_ZN15StDbManagerImpl10initConfigE8StDbType10StDbDomainPKci
   fun:_ZN15StDbManagerImpl10initConfigEPKcS1_i
   fun:_ZN10StDbBroker10InitConfigEPKcRiPc
   fun:_ZN11St_db_Maker9OpenMySQLEPKc
   fun:_ZN11St_db_Maker4InitEv
   fun:_ZN7StMaker4InitEv
   fun:_ZN7StChain4InitEv
   fun:_ZN9StBFChain4InitEv
   fun:_ZL23G__StChain_Cint_572_0_6P8G__valuePKcP8G__parami
   fun:_ZN4Cint19G__ExceptionWrapperEPFiP8G__valuePKcP8G__paramiES1_PcS5_i
   fun:G__execute_call
}
{
   Memcheck:Value4
   fun:strcpy
   fun:_ZN10StDbBuffer11WriteScalarEPKcS1_
   fun:_ZN7MysqlDb6OutputEP10StDbBuffer
   fun:_ZN7StDbSql7QueryDbEP14StDbConfigNode
   fun:_ZN18StDbConfigNodeImpl9buildTreeEi
   fun:_ZN15StDbManagerImpl10initConfigE8StDbType10StDbDomainPKci
   fun:_ZN15StDbManagerImpl10initConfigEPKcS1_i
   fun:_ZN10StDbBroker10InitConfigEPKcRiPc
   fun:_ZN11St_db_Maker9OpenMySQLEPKc
   fun:_ZN11St_db_Maker4InitEv
   fun:_ZN7StMaker4InitEv
   fun:_ZN7StChain4InitEv
   fun:_ZN9StBFChain4InitEv
   fun:_ZL23G__StChain_Cint_572_0_6P8G__valuePKcP8G__parami
   fun:_ZN4Cint19G__ExceptionWrapperEPFiP8G__valuePKcP8G__paramiES1_PcS5_i
   fun:G__execute_call
}
{
   Memcheck:Cond
   fun:strcpy
   fun:_ZN10StDbBuffer11WriteScalarEPKcS1_
   fun:_ZN7MysqlDb6OutputEP10StDbBuffer
   fun:_ZN7StDbSql7QueryDbEP14StDbConfigNode
   fun:_ZN18StDbConfigNodeImpl9buildTreeEi
   fun:_ZN15StDbManagerImpl10initConfigE8StDbType10StDbDomainPKci
   fun:_ZN15StDbManagerImpl10initConfigEPKcS1_i
   fun:_ZN10StDbBroker10InitConfigEPKcRiPc
   fun:_ZN11St_db_Maker9OpenMySQLEPKc
   fun:_ZN11St_db_Maker4InitEv
   fun:_ZN7StMaker4InitEv
   fun:_ZN7StChain4InitEv
   fun:_ZN9StBFChain4InitEv
   fun:_ZL23G__StChain_Cint_572_0_6P8G__valuePKcP8G__parami
   fun:_ZN4Cint19G__ExceptionWrapperEPFiP8G__valuePKcP8G__paramiES1_PcS5_i
   fun:G__execute_call
}
{
   Memcheck:Value4
   fun:memcpy
   fun:cli_read_rows
   obj:/usr/lib/mysql/libmysqlclient.so.16.0.0
   fun:mysql_real_query
   fun:_ZN7MysqlDb9ExecQueryEv
   fun:_ZN7MysqlDblsEPKc
   fun:_ZN7StDbSql9queryNodeEP8StDbNode
   fun:_ZN7StDbSql11prepareNodeEP8StDbNode
   fun:_ZN7StDbSql7QueryDbEP14StDbConfigNode
   fun:_ZN18StDbConfigNodeImpl9buildTreeEi
   fun:_ZN18StDbConfigNodeImpl9buildTreeEi
   fun:_ZN15StDbManagerImpl10initConfigE8StDbType10StDbDomainPKci
   fun:_ZN15StDbManagerImpl10initConfigEPKcS1_i
   fun:_ZN10StDbBroker10InitConfigEPKcRiPc
   fun:_ZN11St_db_Maker9OpenMySQLEPKc
   fun:_ZN11St_db_Maker4InitEv
   fun:_ZN7StMaker4InitEv
   fun:_ZN7StChain4InitEv
   fun:_ZN9StBFChain4InitEv
   fun:_ZL23G__StChain_Cint_572_0_6P8G__valuePKcP8G__parami
   fun:_ZN4Cint19G__ExceptionWrapperEPFiP8G__valuePKcP8G__paramiES1_PcS5_i
   fun:G__execute_call
}
{
   Memcheck:Cond
   fun:memcpy
   fun:cli_read_rows
   obj:/usr/lib/mysql/libmysqlclient.so.16.0.0
   fun:mysql_real_query
   fun:_ZN7MysqlDb9ExecQueryEv
   fun:_ZN7MysqlDblsEPKc
   fun:_ZN7StDbSql9queryNodeEP8StDbNode
   fun:_ZN7StDbSql11prepareNodeEP8StDbNode
   fun:_ZN7StDbSql7QueryDbEP14StDbConfigNode
   fun:_ZN18StDbConfigNodeImpl9buildTreeEi
   fun:_ZN18StDbConfigNodeImpl9buildTreeEi
   fun:_ZN15StDbManagerImpl10initConfigE8StDbType10StDbDomainPKci
   fun:_ZN15StDbManagerImpl10initConfigEPKcS1_i
   fun:_ZN10StDbBroker10InitConfigEPKcRiPc
   fun:_ZN11St_db_Maker9OpenMySQLEPKc
   fun:_ZN11St_db_Maker4InitEv
   fun:_ZN7StMaker4InitEv
   fun:_ZN7StChain4InitEv
   fun:_ZN9StBFChain4InitEv
   fun:_ZL23G__StChain_Cint_572_0_6P8G__valuePKcP8G__parami
   fun:_ZN4Cint19G__ExceptionWrapperEPFiP8G__valuePKcP8G__paramiES1_PcS5_i
   fun:G__execute_call
}
{
   Memcheck:Cond
   fun:memcpy
   fun:strmake_root
   fun:unpack_fields
   obj:/usr/lib/mysql/libmysqlclient.so.16.0.0
   fun:mysql_real_query
   fun:_ZN7MysqlDb9ExecQueryEv
   fun:_ZN7MysqlDblsEPKc
   fun:_ZN7StDbSql9queryNodeEP8StDbNode
   fun:_ZN7StDbSql11prepareNodeEP8StDbNode
   fun:_ZN7StDbSql7QueryDbEP14StDbConfigNode
   fun:_ZN18StDbConfigNodeImpl9buildTreeEi
   fun:_ZN18StDbConfigNodeImpl9buildTreeEi
   fun:_ZN15StDbManagerImpl10initConfigE8StDbType10StDbDomainPKci
   fun:_ZN15StDbManagerImpl10initConfigEPKcS1_i
   fun:_ZN10StDbBroker10InitConfigEPKcRiPc
   fun:_ZN11St_db_Maker9OpenMySQLEPKc
   fun:_ZN11St_db_Maker4InitEv
   fun:_ZN7StMaker4InitEv
   fun:_ZN7StChain4InitEv
   fun:_ZN9StBFChain4InitEv
   fun:_ZL23G__StChain_Cint_572_0_6P8G__valuePKcP8G__parami
   fun:_ZN4Cint19G__ExceptionWrapperEPFiP8G__valuePKcP8G__paramiES1_PcS5_i
   fun:G__execute_call
}
{
   Memcheck:Value4
   fun:memcpy
   fun:strmake_root
   fun:unpack_fields
   obj:/usr/lib/mysql/libmysqlclient.so.16.0.0
   fun:mysql_real_query
   fun:_ZN7MysqlDb9ExecQueryEv
   fun:_ZN7MysqlDblsEPKc
   fun:_ZN7StDbSql9queryNodeEP8StDbNode
   fun:_ZN7StDbSql11prepareNodeEP8StDbNode
   fun:_ZN7StDbSql7QueryDbEP14StDbConfigNode
   fun:_ZN18StDbConfigNodeImpl9buildTreeEi
   fun:_ZN18StDbConfigNodeImpl9buildTreeEi
   fun:_ZN15StDbManagerImpl10initConfigE8StDbType10StDbDomainPKci
   fun:_ZN15StDbManagerImpl10initConfigEPKcS1_i
   fun:_ZN10StDbBroker10InitConfigEPKcRiPc
   fun:_ZN11St_db_Maker9OpenMySQLEPKc
   fun:_ZN11St_db_Maker4InitEv
   fun:_ZN7StMaker4InitEv
   fun:_ZN7StChain4InitEv
   fun:_ZN9StBFChain4InitEv
   fun:_ZL23G__StChain_Cint_572_0_6P8G__valuePKcP8G__parami
   fun:_ZN4Cint19G__ExceptionWrapperEPFiP8G__valuePKcP8G__paramiES1_PcS5_i
   fun:G__execute_call
}
{
   Memcheck:Value4
   fun:cli_read_rows
   fun:mysql_store_result
   fun:_ZN7MysqlDb9ExecQueryEv
   fun:_ZN7MysqlDblsEPKc
   fun:_ZN7StDbSql7QueryDbEP14StDbConfigNode
   fun:_ZN18StDbConfigNodeImpl9buildTreeEi
   fun:_ZN18StDbConfigNodeImpl9buildTreeEi
   fun:_ZN15StDbManagerImpl10initConfigE8StDbType10StDbDomainPKci
   fun:_ZN15StDbManagerImpl10initConfigEPKcS1_i
   fun:_ZN10StDbBroker10InitConfigEPKcRiPc
   fun:_ZN11St_db_Maker9OpenMySQLEPKc
   fun:_ZN11St_db_Maker4InitEv
   fun:_ZN7StMaker4InitEv
   fun:_ZN7StChain4InitEv
   fun:_ZN9StBFChain4InitEv
   fun:_ZL23G__StChain_Cint_572_0_6P8G__valuePKcP8G__parami
   fun:_ZN4Cint19G__ExceptionWrapperEPFiP8G__valuePKcP8G__paramiES1_PcS5_i
   fun:G__execute_call
}
{
   Memcheck:Cond
   obj:/usr/lib/mysql/libmysqlclient.so.16.0.0
   fun:mysql_fetch_lengths
   fun:_ZN7MysqlDb6OutputEP10StDbBuffer
   fun:_ZN7StDbSql7QueryDbEP14StDbConfigNode
   fun:_ZN18StDbConfigNodeImpl9buildTreeEi
   fun:_ZN18StDbConfigNodeImpl9buildTreeEi
   fun:_ZN15StDbManagerImpl10initConfigE8StDbType10StDbDomainPKci
   fun:_ZN15StDbManagerImpl10initConfigEPKcS1_i
   fun:_ZN10StDbBroker10InitConfigEPKcRiPc
   fun:_ZN11St_db_Maker9OpenMySQLEPKc
   fun:_ZN11St_db_Maker4InitEv
   fun:_ZN7StMaker4InitEv
   fun:_ZN7StChain4InitEv
   fun:_ZN9StBFChain4InitEv
   fun:_ZL23G__StChain_Cint_572_0_6P8G__valuePKcP8G__parami
   fun:_ZN4Cint19G__ExceptionWrapperEPFiP8G__valuePKcP8G__paramiES1_PcS5_i
   fun:G__execute_call
}
{
   Memcheck:Cond
   fun:inflate
   fun:uncompress
   fun:my_uncompress
   fun:my_net_read
   fun:cli_safe_read
   obj:/usr/lib/mysql/libmysqlclient.so.16.0.0
   fun:mysql_real_query
   fun:_ZN7MysqlDb9ExecQueryEv
   fun:_ZN7MysqlDblsEPKc
   fun:_ZN7StDbSql7QueryDbEP14StDbConfigNode
   fun:_ZN18StDbConfigNodeImpl9buildTreeEi
   fun:_ZN18StDbConfigNodeImpl9buildTreeEi
   fun:_ZN18StDbConfigNodeImpl9buildTreeEi
   fun:_ZN15StDbManagerImpl10initConfigE8StDbType10StDbDomainPKci
   fun:_ZN15StDbManagerImpl10initConfigEPKcS1_i
   fun:_ZN10StDbBroker10InitConfigEPKcRiPc
   fun:_ZN11St_db_Maker9OpenMySQLEPKc
   fun:_ZN11St_db_Maker4InitEv
   fun:_ZN7StMaker4InitEv
   fun:_ZN7StChain4InitEv
   fun:_ZN9StBFChain4InitEv
   fun:_ZL23G__StChain_Cint_572_0_6P8G__valuePKcP8G__parami
   fun:_ZN4Cint19G__ExceptionWrapperEPFiP8G__valuePKcP8G__paramiES1_PcS5_i
   fun:G__execute_call
}
{
   Memcheck:Value4
   fun:inflate
   fun:uncompress
   fun:my_uncompress
   fun:my_net_read
   fun:cli_safe_read
   obj:/usr/lib/mysql/libmysqlclient.so.16.0.0
   fun:mysql_real_query
   fun:_ZN7MysqlDb9ExecQueryEv
   fun:_ZN7MysqlDblsEPKc
   fun:_ZN7StDbSql7QueryDbEP14StDbConfigNode
   fun:_ZN18StDbConfigNodeImpl9buildTreeEi
   fun:_ZN18StDbConfigNodeImpl9buildTreeEi
   fun:_ZN18StDbConfigNodeImpl9buildTreeEi
   fun:_ZN15StDbManagerImpl10initConfigE8StDbType10StDbDomainPKci
   fun:_ZN15StDbManagerImpl10initConfigEPKcS1_i
   fun:_ZN10StDbBroker10InitConfigEPKcRiPc
   fun:_ZN11St_db_Maker9OpenMySQLEPKc
   fun:_ZN11St_db_Maker4InitEv
   fun:_ZN7StMaker4InitEv
   fun:_ZN7StChain4InitEv
   fun:_ZN9StBFChain4InitEv
   fun:_ZL23G__StChain_Cint_572_0_6P8G__valuePKcP8G__parami
   fun:_ZN4Cint19G__ExceptionWrapperEPFiP8G__valuePKcP8G__paramiES1_PcS5_i
   fun:G__execute_call
}
{
   Memcheck:Cond
   fun:_ZN7MysqlDb6OutputEP10StDbBuffer
   fun:_ZN7StDbSql14selectElementsEPKcP16StDbElementIndexRi
   fun:_ZN18StDbConfigNodeImpl13updateDbTableEP9StDbTablei
   fun:_ZN18StDbConfigNodeImpl14updateDbTablesEi
   fun:_ZN18StDbConfigNodeImpl9buildTreeEi
   fun:_ZN18StDbConfigNodeImpl9buildTreeEi
   fun:_ZN18StDbConfigNodeImpl9buildTreeEi
   fun:_ZN15StDbManagerImpl10initConfigE8StDbType10StDbDomainPKci
   fun:_ZN15StDbManagerImpl10initConfigEPKcS1_i
   fun:_ZN10StDbBroker10InitConfigEPKcRiPc
   fun:_ZN11St_db_Maker9OpenMySQLEPKc
   fun:_ZN11St_db_Maker4InitEv
   fun:_ZN7StMaker4InitEv
   fun:_ZN7StChain4InitEv
   fun:_ZN9StBFChain4InitEv
   fun:_ZL23G__StChain_Cint_572_0_6P8G__valuePKcP8G__parami
   fun:_ZN4Cint19G__ExceptionWrapperEPFiP8G__valuePKcP8G__paramiES1_PcS5_i
   fun:G__execute_call
}
{
   Memcheck:Value4
   fun:_ZN7MysqlDb6OutputEP10StDbBuffer
   fun:_ZN7StDbSql14selectElementsEPKcP16StDbElementIndexRi
   fun:_ZN18StDbConfigNodeImpl13updateDbTableEP9StDbTablei
   fun:_ZN18StDbConfigNodeImpl14updateDbTablesEi
   fun:_ZN18StDbConfigNodeImpl9buildTreeEi
   fun:_ZN18StDbConfigNodeImpl9buildTreeEi
   fun:_ZN18StDbConfigNodeImpl9buildTreeEi
   fun:_ZN15StDbManagerImpl10initConfigE8StDbType10StDbDomainPKci
   fun:_ZN15StDbManagerImpl10initConfigEPKcS1_i
   fun:_ZN10StDbBroker10InitConfigEPKcRiPc
   fun:_ZN11St_db_Maker9OpenMySQLEPKc
   fun:_ZN11St_db_Maker4InitEv
   fun:_ZN7StMaker4InitEv
   fun:_ZN7StChain4InitEv
   fun:_ZN9StBFChain4InitEv
   fun:_ZL23G__StChain_Cint_572_0_6P8G__valuePKcP8G__parami
   fun:_ZN4Cint19G__ExceptionWrapperEPFiP8G__valuePKcP8G__paramiES1_PcS5_i
   fun:G__execute_call
}
{
   Memcheck:Cond
   fun:memcpy
   fun:my_uncompress
   fun:my_net_read
   fun:cli_safe_read
   obj:/usr/lib/mysql/libmysqlclient.so.16.0.0
   fun:mysql_real_query
   fun:_ZN7MysqlDb9ExecQueryEv
   fun:_ZN7MysqlDblsEPKc
   fun:_ZN7StDbSql14selectElementsEPKcP16StDbElementIndexRi
   fun:_ZN18StDbConfigNodeImpl13updateDbTableEP9StDbTablei
   fun:_ZN18StDbConfigNodeImpl14updateDbTablesEi
   fun:_ZN18StDbConfigNodeImpl9buildTreeEi
   fun:_ZN18StDbConfigNodeImpl9buildTreeEi
   fun:_ZN18StDbConfigNodeImpl9buildTreeEi
   fun:_ZN15StDbManagerImpl10initConfigE8StDbType10StDbDomainPKci
   fun:_ZN15StDbManagerImpl10initConfigEPKcS1_i
   fun:_ZN10StDbBroker10InitConfigEPKcRiPc
   fun:_ZN11St_db_Maker9OpenMySQLEPKc
   fun:_ZN11St_db_Maker4InitEv
   fun:_ZN7StMaker4InitEv
   fun:_ZN7StChain4InitEv
   fun:_ZN9StBFChain4InitEv
   fun:_ZL23G__StChain_Cint_572_0_6P8G__valuePKcP8G__parami
   fun:_ZN4Cint19G__ExceptionWrapperEPFiP8G__valuePKcP8G__paramiES1_PcS5_i
}
{
   Memcheck:Cond
   fun:memcpy
   fun:my_uncompress
   fun:my_net_read
   fun:cli_safe_read
   obj:/usr/lib/mysql/libmysqlclient.so.16.0.0
   fun:mysql_real_query
   fun:_ZN7MysqlDb9ExecQueryEv
   fun:_ZN7MysqlDblsEPKc
   fun:_ZN7StDbSql14selectElementsEPKcP16StDbElementIndexRi
   fun:_ZN18StDbConfigNodeImpl13updateDbTableEP9StDbTablei
   fun:_ZN18StDbConfigNodeImpl14updateDbTablesEi
   fun:_ZN18StDbConfigNodeImpl9buildTreeEi
   fun:_ZN18StDbConfigNodeImpl9buildTreeEi
   fun:_ZN18StDbConfigNodeImpl9buildTreeEi
   fun:_ZN18StDbConfigNodeImpl9buildTreeEi
   fun:_ZN15StDbManagerImpl10initConfigE8StDbType10StDbDomainPKci
   fun:_ZN15StDbManagerImpl10initConfigEPKcS1_i
   fun:_ZN10StDbBroker10InitConfigEPKcRiPc
   fun:_ZN11St_db_Maker9OpenMySQLEPKc
   fun:_ZN11St_db_Maker4InitEv
   fun:_ZN7StMaker4InitEv
   fun:_ZN7StChain4InitEv
   fun:_ZN9StBFChain4InitEv
   fun:_ZL23G__StChain_Cint_572_0_6P8G__valuePKcP8G__parami
}
{
   Memcheck:Value4
   fun:memcpy
   fun:my_uncompress
   fun:my_net_read
   fun:cli_safe_read
   obj:/usr/lib/mysql/libmysqlclient.so.16.0.0
   fun:mysql_real_query
   fun:_ZN7MysqlDb9ExecQueryEv
   fun:_ZN7MysqlDblsEPKc
   fun:_ZN7StDbSql14selectElementsEPKcP16StDbElementIndexRi
   fun:_ZN18StDbConfigNodeImpl13updateDbTableEP9StDbTablei
   fun:_ZN18StDbConfigNodeImpl14updateDbTablesEi
   fun:_ZN18StDbConfigNodeImpl9buildTreeEi
   fun:_ZN18StDbConfigNodeImpl9buildTreeEi
   fun:_ZN18StDbConfigNodeImpl9buildTreeEi
   fun:_ZN18StDbConfigNodeImpl9buildTreeEi
   fun:_ZN15StDbManagerImpl10initConfigE8StDbType10StDbDomainPKci
   fun:_ZN15StDbManagerImpl10initConfigEPKcS1_i
   fun:_ZN10StDbBroker10InitConfigEPKcRiPc
   fun:_ZN11St_db_Maker9OpenMySQLEPKc
   fun:_ZN11St_db_Maker4InitEv
   fun:_ZN7StMaker4InitEv
   fun:_ZN7StChain4InitEv
   fun:_ZN9StBFChain4InitEv
   fun:_ZL23G__StChain_Cint_572_0_6P8G__valuePKcP8G__parami
}
{
   Memcheck:Value4
   fun:inflate
   fun:uncompress
   fun:my_uncompress
   fun:my_net_read
   fun:cli_safe_read
   obj:/usr/lib/mysql/libmysqlclient.so.16.0.0
   fun:mysql_real_query
   fun:_ZN7MysqlDb9ExecQueryEv
   fun:_ZN7MysqlDblsEPKc
   fun:_ZN7StDbSql7QueryDbEP14StDbConfigNode
   fun:_ZN18StDbConfigNodeImpl9buildTreeEi
   fun:_ZN18StDbConfigNodeImpl9buildTreeEi
   fun:_ZN18StDbConfigNodeImpl9buildTreeEi
   fun:_ZN18StDbConfigNodeImpl9buildTreeEi
   fun:_ZN18StDbConfigNodeImpl9buildTreeEi
   fun:_ZN18StDbConfigNodeImpl9buildTreeEi
   fun:_ZN15StDbManagerImpl10initConfigE8StDbType10StDbDomainPKci
   fun:_ZN15StDbManagerImpl10initConfigEPKcS1_i
   fun:_ZN10StDbBroker10InitConfigEPKcRiPc
   fun:_ZN11St_db_Maker9OpenMySQLEPKc
   fun:_ZN11St_db_Maker4InitEv
   fun:_ZN7StMaker4InitEv
   fun:_ZN7StChain4InitEv
   fun:_ZN9StBFChain4InitEv
}
{
   Memcheck:Value4
   fun:inflate
   fun:uncompress
   fun:my_uncompress
   fun:my_net_read
   fun:cli_safe_read
   obj:/usr/lib/mysql/libmysqlclient.so.16.0.0
   fun:mysql_real_query
   fun:_ZN7MysqlDb9ExecQueryEv
   fun:_ZN7MysqlDblsEPKc
   fun:_ZN7StDbSql7QueryDbEP14StDbConfigNode
   fun:_ZN18StDbConfigNodeImpl9buildTreeEi
   fun:_ZN18StDbConfigNodeImpl9buildTreeEi
   fun:_ZN18StDbConfigNodeImpl9buildTreeEi
   fun:_ZN18StDbConfigNodeImpl9buildTreeEi
   fun:_ZN18StDbConfigNodeImpl9buildTreeEi
   fun:_ZN15StDbManagerImpl10initConfigE8StDbType10StDbDomainPKci
   fun:_ZN15StDbManagerImpl10initConfigEPKcS1_i
   fun:_ZN10StDbBroker10InitConfigEPKcRiPc
   fun:_ZN11St_db_Maker9OpenMySQLEPKc
   fun:_ZN11St_db_Maker4InitEv
   fun:_ZN7StMaker4InitEv
   fun:_ZN7StChain4InitEv
   fun:_ZN9StBFChain4InitEv
   fun:_ZL23G__StChain_Cint_572_0_6P8G__valuePKcP8G__parami
}
{
   Memcheck:Cond
   fun:_ZN8StStringlsEPKc
   fun:_ZN7MysqlDb6OutputEP10StDbBuffer
   fun:_ZN7StDbSql9queryNodeEP8StDbNode
   fun:_ZN7StDbSql11prepareNodeEP8StDbNode
   fun:_ZN7StDbSql7QueryDbEP14StDbConfigNode
   fun:_ZN18StDbConfigNodeImpl9buildTreeEi
   fun:_ZN18StDbConfigNodeImpl9buildTreeEi
   fun:_ZN18StDbConfigNodeImpl9buildTreeEi
   fun:_ZN18StDbConfigNodeImpl9buildTreeEi
   fun:_ZN18StDbConfigNodeImpl9buildTreeEi
   fun:_ZN18StDbConfigNodeImpl9buildTreeEi
   fun:_ZN15StDbManagerImpl10initConfigE8StDbType10StDbDomainPKci
   fun:_ZN15StDbManagerImpl10initConfigEPKcS1_i
   fun:_ZN10StDbBroker10InitConfigEPKcRiPc
   fun:_ZN11St_db_Maker9OpenMySQLEPKc
   fun:_ZN11St_db_Maker4InitEv
   fun:_ZN7StMaker4InitEv
   fun:_ZN7StChain4InitEv
   fun:_ZN9StBFChain4InitEv
   fun:_ZL23G__StChain_Cint_572_0_6P8G__valuePKcP8G__parami
   fun:_ZN4Cint19G__ExceptionWrapperEPFiP8G__valuePKcP8G__paramiES1_PcS5_i
   fun:G__execute_call
}
{
   Memcheck:Value4
   fun:strlen
   fun:_ZNSspLEPKc
   fun:_ZN7MysqlDb6OutputEP10StDbBuffer
   fun:_ZN7StDbSql9queryNodeEP8StDbNode
   fun:_ZN7StDbSql11prepareNodeEP8StDbNode
   fun:_ZN7StDbSql7QueryDbEP14StDbConfigNode
   fun:_ZN18StDbConfigNodeImpl9buildTreeEi
   fun:_ZN18StDbConfigNodeImpl9buildTreeEi
   fun:_ZN18StDbConfigNodeImpl9buildTreeEi
   fun:_ZN18StDbConfigNodeImpl9buildTreeEi
   fun:_ZN18StDbConfigNodeImpl9buildTreeEi
   fun:_ZN18StDbConfigNodeImpl9buildTreeEi
   fun:_ZN15StDbManagerImpl10initConfigE8StDbType10StDbDomainPKci
   fun:_ZN15StDbManagerImpl10initConfigEPKcS1_i
   fun:_ZN10StDbBroker10InitConfigEPKcRiPc
   fun:_ZN11St_db_Maker9OpenMySQLEPKc
   fun:_ZN11St_db_Maker4InitEv
   fun:_ZN7StMaker4InitEv
   fun:_ZN7StChain4InitEv
   fun:_ZN9StBFChain4InitEv
   fun:_ZL23G__StChain_Cint_572_0_6P8G__valuePKcP8G__parami
   fun:_ZN4Cint19G__ExceptionWrapperEPFiP8G__valuePKcP8G__paramiES1_PcS5_i
   fun:G__execute_call
}
{
   Memcheck:Cond
   fun:_ZNSs6appendEPKcj
   fun:_ZNSspLEPKc
   fun:_ZN7MysqlDb6OutputEP10StDbBuffer
   fun:_ZN7StDbSql9queryNodeEP8StDbNode
   fun:_ZN7StDbSql11prepareNodeEP8StDbNode
   fun:_ZN7StDbSql7QueryDbEP14StDbConfigNode
   fun:_ZN18StDbConfigNodeImpl9buildTreeEi
   fun:_ZN18StDbConfigNodeImpl9buildTreeEi
   fun:_ZN18StDbConfigNodeImpl9buildTreeEi
   fun:_ZN18StDbConfigNodeImpl9buildTreeEi
   fun:_ZN18StDbConfigNodeImpl9buildTreeEi
   fun:_ZN18StDbConfigNodeImpl9buildTreeEi
   fun:_ZN15StDbManagerImpl10initConfigE8StDbType10StDbDomainPKci
   fun:_ZN15StDbManagerImpl10initConfigEPKcS1_i
   fun:_ZN10StDbBroker10InitConfigEPKcRiPc
   fun:_ZN11St_db_Maker9OpenMySQLEPKc
   fun:_ZN11St_db_Maker4InitEv
   fun:_ZN7StMaker4InitEv
   fun:_ZN7StChain4InitEv
   fun:_ZN9StBFChain4InitEv
   fun:_ZL23G__StChain_Cint_572_0_6P8G__valuePKcP8G__parami
   fun:_ZN4Cint19G__ExceptionWrapperEPFiP8G__valuePKcP8G__paramiES1_PcS5_i
   fun:G__execute_call
}
{
   Memcheck:Cond
   fun:memcpy
   fun:_ZNSs6appendEPKcj
   fun:_ZNSspLEPKc
   fun:_ZN7MysqlDb6OutputEP10StDbBuffer
   fun:_ZN7StDbSql9queryNodeEP8StDbNode
   fun:_ZN7StDbSql11prepareNodeEP8StDbNode
   fun:_ZN7StDbSql7QueryDbEP14StDbConfigNode
   fun:_ZN18StDbConfigNodeImpl9buildTreeEi
   fun:_ZN18StDbConfigNodeImpl9buildTreeEi
   fun:_ZN18StDbConfigNodeImpl9buildTreeEi
   fun:_ZN18StDbConfigNodeImpl9buildTreeEi
   fun:_ZN18StDbConfigNodeImpl9buildTreeEi
   fun:_ZN18StDbConfigNodeImpl9buildTreeEi
   fun:_ZN15StDbManagerImpl10initConfigE8StDbType10StDbDomainPKci
   fun:_ZN15StDbManagerImpl10initConfigEPKcS1_i
   fun:_ZN10StDbBroker10InitConfigEPKcRiPc
   fun:_ZN11St_db_Maker9OpenMySQLEPKc
   fun:_ZN11St_db_Maker4InitEv
   fun:_ZN7StMaker4InitEv
   fun:_ZN7StChain4InitEv
   fun:_ZN9StBFChain4InitEv
   fun:_ZL23G__StChain_Cint_572_0_6P8G__valuePKcP8G__parami
   fun:_ZN4Cint19G__ExceptionWrapperEPFiP8G__valuePKcP8G__paramiES1_PcS5_i
   fun:G__execute_call
}
{
   Memcheck:Value4
   fun:memcpy
   fun:_ZNSs6appendEPKcj
   fun:_ZNSspLEPKc
   fun:_ZN7MysqlDb6OutputEP10StDbBuffer
   fun:_ZN7StDbSql9queryNodeEP8StDbNode
   fun:_ZN7StDbSql11prepareNodeEP8StDbNode
   fun:_ZN7StDbSql7QueryDbEP14StDbConfigNode
   fun:_ZN18StDbConfigNodeImpl9buildTreeEi
   fun:_ZN18StDbConfigNodeImpl9buildTreeEi
   fun:_ZN18StDbConfigNodeImpl9buildTreeEi
   fun:_ZN18StDbConfigNodeImpl9buildTreeEi
   fun:_ZN18StDbConfigNodeImpl9buildTreeEi
   fun:_ZN18StDbConfigNodeImpl9buildTreeEi
   fun:_ZN15StDbManagerImpl10initConfigE8StDbType10StDbDomainPKci
   fun:_ZN15StDbManagerImpl10initConfigEPKcS1_i
   fun:_ZN10StDbBroker10InitConfigEPKcRiPc
   fun:_ZN11St_db_Maker9OpenMySQLEPKc
   fun:_ZN11St_db_Maker4InitEv
   fun:_ZN7StMaker4InitEv
   fun:_ZN7StChain4InitEv
   fun:_ZN9StBFChain4InitEv
   fun:_ZL23G__StChain_Cint_572_0_6P8G__valuePKcP8G__parami
   fun:_ZN4Cint19G__ExceptionWrapperEPFiP8G__valuePKcP8G__paramiES1_PcS5_i
   fun:G__execute_call
}
{
   Memcheck:Cond
   fun:memcpy
   fun:_ZNSs6appendEPKcj
   fun:_ZNSspLEPKc
   fun:_ZN7MysqlDb6OutputEP10StDbBuffer
   fun:_ZN7StDbSql7QueryDbEP14StDbConfigNode
   fun:_ZN18StDbConfigNodeImpl9buildTreeEi
   fun:_ZN18StDbConfigNodeImpl9buildTreeEi
   fun:_ZN18StDbConfigNodeImpl9buildTreeEi
   fun:_ZN18StDbConfigNodeImpl9buildTreeEi
   fun:_ZN18StDbConfigNodeImpl9buildTreeEi
   fun:_ZN18StDbConfigNodeImpl9buildTreeEi
   fun:_ZN15StDbManagerImpl10initConfigE8StDbType10StDbDomainPKci
   fun:_ZN15StDbManagerImpl10initConfigEPKcS1_i
   fun:_ZN10StDbBroker10InitConfigEPKcRiPc
   fun:_ZN11St_db_Maker9OpenMySQLEPKc
   fun:_ZN11St_db_Maker4InitEv
   fun:_ZN7StMaker4InitEv
   fun:_ZN7StChain4InitEv
   fun:_ZN9StBFChain4InitEv
   fun:_ZL23G__StChain_Cint_572_0_6P8G__valuePKcP8G__parami
   fun:_ZN4Cint19G__ExceptionWrapperEPFiP8G__valuePKcP8G__paramiES1_PcS5_i
   fun:G__execute_call
}
{
   Memcheck:Value4
   fun:memcpy
   fun:_ZNSs6appendEPKcj
   fun:_ZNSspLEPKc
   fun:_ZN7MysqlDb6OutputEP10StDbBuffer
   fun:_ZN7StDbSql7QueryDbEP14StDbConfigNode
   fun:_ZN18StDbConfigNodeImpl9buildTreeEi
   fun:_ZN18StDbConfigNodeImpl9buildTreeEi
   fun:_ZN18StDbConfigNodeImpl9buildTreeEi
   fun:_ZN18StDbConfigNodeImpl9buildTreeEi
   fun:_ZN18StDbConfigNodeImpl9buildTreeEi
   fun:_ZN18StDbConfigNodeImpl9buildTreeEi
   fun:_ZN15StDbManagerImpl10initConfigE8StDbType10StDbDomainPKci
   fun:_ZN15StDbManagerImpl10initConfigEPKcS1_i
   fun:_ZN10StDbBroker10InitConfigEPKcRiPc
   fun:_ZN11St_db_Maker9OpenMySQLEPKc
   fun:_ZN11St_db_Maker4InitEv
   fun:_ZN7StMaker4InitEv
   fun:_ZN7StChain4InitEv
   fun:_ZN9StBFChain4InitEv
   fun:_ZL23G__StChain_Cint_572_0_6P8G__valuePKcP8G__parami
   fun:_ZN4Cint19G__ExceptionWrapperEPFiP8G__valuePKcP8G__paramiES1_PcS5_i
   fun:G__execute_call
}
{
   Memcheck:Value4
   fun:_ZN7MysqlDb6OutputEP10StDbBuffer
   fun:_ZN7StDbSql7QueryDbEP14StDbConfigNode
   fun:_ZN18StDbConfigNodeImpl9buildTreeEi
   fun:_ZN18StDbConfigNodeImpl9buildTreeEi
   fun:_ZN18StDbConfigNodeImpl9buildTreeEi
   fun:_ZN18StDbConfigNodeImpl9buildTreeEi
   fun:_ZN18StDbConfigNodeImpl9buildTreeEi
   fun:_ZN18StDbConfigNodeImpl9buildTreeEi
   fun:_ZN15StDbManagerImpl10initConfigE8StDbType10StDbDomainPKci
   fun:_ZN15StDbManagerImpl10initConfigEPKcS1_i
   fun:_ZN10StDbBroker10InitConfigEPKcRiPc
   fun:_ZN11St_db_Maker9OpenMySQLEPKc
   fun:_ZN11St_db_Maker4InitEv
   fun:_ZN7StMaker4InitEv
   fun:_ZN7StChain4InitEv
   fun:_ZN9StBFChain4InitEv
   fun:_ZL23G__StChain_Cint_572_0_6P8G__valuePKcP8G__parami
   fun:_ZN4Cint19G__ExceptionWrapperEPFiP8G__valuePKcP8G__paramiES1_PcS5_i
   fun:G__execute_call
}
{
   Memcheck:Cond
   fun:_ZN7MysqlDb14DecodeStrArrayEPcRi
   fun:_ZN7MysqlDb6OutputEP10StDbBuffer
   fun:_ZN7StDbSql7QueryDbEP14StDbConfigNode
   fun:_ZN18StDbConfigNodeImpl9buildTreeEi
   fun:_ZN18StDbConfigNodeImpl9buildTreeEi
   fun:_ZN18StDbConfigNodeImpl9buildTreeEi
   fun:_ZN18StDbConfigNodeImpl9buildTreeEi
   fun:_ZN18StDbConfigNodeImpl9buildTreeEi
   fun:_ZN18StDbConfigNodeImpl9buildTreeEi
   fun:_ZN15StDbManagerImpl10initConfigE8StDbType10StDbDomainPKci
   fun:_ZN15StDbManagerImpl10initConfigEPKcS1_i
   fun:_ZN10StDbBroker10InitConfigEPKcRiPc
   fun:_ZN11St_db_Maker9OpenMySQLEPKc
   fun:_ZN11St_db_Maker4InitEv
   fun:_ZN7StMaker4InitEv
   fun:_ZN7StChain4InitEv
   fun:_ZN9StBFChain4InitEv
   fun:_ZL23G__StChain_Cint_572_0_6P8G__valuePKcP8G__parami
   fun:_ZN4Cint19G__ExceptionWrapperEPFiP8G__valuePKcP8G__paramiES1_PcS5_i
   fun:G__execute_call
}
{
   Memcheck:Value4
   fun:strpbrk
   fun:_ZN7MysqlDb14DecodeStrArrayEPcRi
   fun:_ZN7MysqlDb6OutputEP10StDbBuffer
   fun:_ZN7StDbSql7QueryDbEP14StDbConfigNode
   fun:_ZN18StDbConfigNodeImpl9buildTreeEi
   fun:_ZN18StDbConfigNodeImpl9buildTreeEi
   fun:_ZN18StDbConfigNodeImpl9buildTreeEi
   fun:_ZN18StDbConfigNodeImpl9buildTreeEi
   fun:_ZN18StDbConfigNodeImpl9buildTreeEi
   fun:_ZN18StDbConfigNodeImpl9buildTreeEi
   fun:_ZN15StDbManagerImpl10initConfigE8StDbType10StDbDomainPKci
   fun:_ZN15StDbManagerImpl10initConfigEPKcS1_i
   fun:_ZN10StDbBroker10InitConfigEPKcRiPc
   fun:_ZN11St_db_Maker9OpenMySQLEPKc
   fun:_ZN11St_db_Maker4InitEv
   fun:_ZN7StMaker4InitEv
   fun:_ZN7StChain4InitEv
   fun:_ZN9StBFChain4InitEv
   fun:_ZL23G__StChain_Cint_572_0_6P8G__valuePKcP8G__parami
   fun:_ZN4Cint19G__ExceptionWrapperEPFiP8G__valuePKcP8G__paramiES1_PcS5_i
   fun:G__execute_call
}
{
   Memcheck:Value4
   fun:strlen
   fun:_ZN7MysqlDb14DecodeStrArrayEPcRi
   fun:_ZN7MysqlDb6OutputEP10StDbBuffer
   fun:_ZN7StDbSql7QueryDbEP14StDbConfigNode
   fun:_ZN18StDbConfigNodeImpl9buildTreeEi
   fun:_ZN18StDbConfigNodeImpl9buildTreeEi
   fun:_ZN18StDbConfigNodeImpl9buildTreeEi
   fun:_ZN18StDbConfigNodeImpl9buildTreeEi
   fun:_ZN18StDbConfigNodeImpl9buildTreeEi
   fun:_ZN18StDbConfigNodeImpl9buildTreeEi
   fun:_ZN15StDbManagerImpl10initConfigE8StDbType10StDbDomainPKci
   fun:_ZN15StDbManagerImpl10initConfigEPKcS1_i
   fun:_ZN10StDbBroker10InitConfigEPKcRiPc
   fun:_ZN11St_db_Maker9OpenMySQLEPKc
   fun:_ZN11St_db_Maker4InitEv
   fun:_ZN7StMaker4InitEv
   fun:_ZN7StChain4InitEv
   fun:_ZN9StBFChain4InitEv
   fun:_ZL23G__StChain_Cint_572_0_6P8G__valuePKcP8G__parami
   fun:_ZN4Cint19G__ExceptionWrapperEPFiP8G__valuePKcP8G__paramiES1_PcS5_i
   fun:G__execute_call
}
{
   Memcheck:Value4
   fun:strcpy
   fun:_ZN7MysqlDb14DecodeStrArrayEPcRi
   fun:_ZN7MysqlDb6OutputEP10StDbBuffer
   fun:_ZN7StDbSql7QueryDbEP14StDbConfigNode
   fun:_ZN18StDbConfigNodeImpl9buildTreeEi
   fun:_ZN18StDbConfigNodeImpl9buildTreeEi
   fun:_ZN18StDbConfigNodeImpl9buildTreeEi
   fun:_ZN18StDbConfigNodeImpl9buildTreeEi
   fun:_ZN18StDbConfigNodeImpl9buildTreeEi
   fun:_ZN18StDbConfigNodeImpl9buildTreeEi
   fun:_ZN15StDbManagerImpl10initConfigE8StDbType10StDbDomainPKci
   fun:_ZN15StDbManagerImpl10initConfigEPKcS1_i
   fun:_ZN10StDbBroker10InitConfigEPKcRiPc
   fun:_ZN11St_db_Maker9OpenMySQLEPKc
   fun:_ZN11St_db_Maker4InitEv
   fun:_ZN7StMaker4InitEv
   fun:_ZN7StChain4InitEv
   fun:_ZN9StBFChain4InitEv
   fun:_ZL23G__StChain_Cint_572_0_6P8G__valuePKcP8G__parami
   fun:_ZN4Cint19G__ExceptionWrapperEPFiP8G__valuePKcP8G__paramiES1_PcS5_i
   fun:G__execute_call
}
{
   Memcheck:Cond
   fun:strcpy
   fun:_ZN7MysqlDb14DecodeStrArrayEPcRi
   fun:_ZN7MysqlDb6OutputEP10StDbBuffer
   fun:_ZN7StDbSql7QueryDbEP14StDbConfigNode
   fun:_ZN18StDbConfigNodeImpl9buildTreeEi
   fun:_ZN18StDbConfigNodeImpl9buildTreeEi
   fun:_ZN18StDbConfigNodeImpl9buildTreeEi
   fun:_ZN18StDbConfigNodeImpl9buildTreeEi
   fun:_ZN18StDbConfigNodeImpl9buildTreeEi
   fun:_ZN18StDbConfigNodeImpl9buildTreeEi
   fun:_ZN15StDbManagerImpl10initConfigE8StDbType10StDbDomainPKci
   fun:_ZN15StDbManagerImpl10initConfigEPKcS1_i
   fun:_ZN10StDbBroker10InitConfigEPKcRiPc
   fun:_ZN11St_db_Maker9OpenMySQLEPKc
   fun:_ZN11St_db_Maker4InitEv
   fun:_ZN7StMaker4InitEv
   fun:_ZN7StChain4InitEv
   fun:_ZN9StBFChain4InitEv
   fun:_ZL23G__StChain_Cint_572_0_6P8G__valuePKcP8G__parami
   fun:_ZN4Cint19G__ExceptionWrapperEPFiP8G__valuePKcP8G__paramiES1_PcS5_i
   fun:G__execute_call
}
{
   Memcheck:Cond
   fun:_ZN10StDbBuffer11WriteScalarEPKcS1_
   fun:_ZN7MysqlDb6OutputEP10StDbBuffer
   fun:_ZN7StDbSql7QueryDbEP14StDbConfigNode
   fun:_ZN18StDbConfigNodeImpl9buildTreeEi
   fun:_ZN18StDbConfigNodeImpl9buildTreeEi
   fun:_ZN18StDbConfigNodeImpl9buildTreeEi
   fun:_ZN18StDbConfigNodeImpl9buildTreeEi
   fun:_ZN18StDbConfigNodeImpl9buildTreeEi
   fun:_ZN18StDbConfigNodeImpl9buildTreeEi
   fun:_ZN15StDbManagerImpl10initConfigE8StDbType10StDbDomainPKci
   fun:_ZN15StDbManagerImpl10initConfigEPKcS1_i
   fun:_ZN10StDbBroker10InitConfigEPKcRiPc
   fun:_ZN11St_db_Maker9OpenMySQLEPKc
   fun:_ZN11St_db_Maker4InitEv
   fun:_ZN7StMaker4InitEv
   fun:_ZN7StChain4InitEv
   fun:_ZN9StBFChain4InitEv
   fun:_ZL23G__StChain_Cint_572_0_6P8G__valuePKcP8G__parami
   fun:_ZN4Cint19G__ExceptionWrapperEPFiP8G__valuePKcP8G__paramiES1_PcS5_i
   fun:G__execute_call
}
{
   Memcheck:Cond
   fun:inflate
   fun:uncompress
   fun:my_uncompress
   fun:my_net_read
   fun:cli_safe_read
   obj:/usr/lib/mysql/libmysqlclient.so.16.0.0
   fun:mysql_real_query
   fun:_ZN7MysqlDb9ExecQueryEv
   fun:_ZN7MysqlDblsEPKc
   fun:_ZN7StDbSql14selectElementsEPKcP16StDbElementIndexRi
   fun:_ZN18StDbConfigNodeImpl13updateDbTableEP9StDbTablei
   fun:_ZN18StDbConfigNodeImpl14updateDbTablesEi
   fun:_ZN18StDbConfigNodeImpl9buildTreeEi
   fun:_ZN18StDbConfigNodeImpl9buildTreeEi
   fun:_ZN18StDbConfigNodeImpl9buildTreeEi
   fun:_ZN18StDbConfigNodeImpl9buildTreeEi
   fun:_ZN18StDbConfigNodeImpl9buildTreeEi
   fun:_ZN18StDbConfigNodeImpl9buildTreeEi
   fun:_ZN18StDbConfigNodeImpl9buildTreeEi
   fun:_ZN18StDbConfigNodeImpl9buildTreeEi
   fun:_ZN18StDbConfigNodeImpl9buildTreeEi
   fun:_ZN18StDbConfigNodeImpl9buildTreeEi
   fun:_ZN15StDbManagerImpl10initConfigE8StDbType10StDbDomainPKci
   fun:_ZN15StDbManagerImpl10initConfigEPKcS1_i
}
{
   Memcheck:Cond
   fun:cli_safe_read
   fun:cli_advanced_command
   fun:mysql_select_db
   fun:_ZN7MysqlDb12setDefaultDbEPKc
   fun:_ZN7StDbSql3useEv
   fun:_ZN14StDbServerImpl11addDataBaseE8StDbType10StDbDomain
   fun:_ZN15StDbManagerImpl10findServerE8StDbType10StDbDomain
   fun:_ZN15StDbManagerImpl11printDbNameE8StDbType10StDbDomain
   fun:_ZN15StDbManagerImpl18getExternalVersionE8StDbType10StDbDomain
   fun:_ZN18StDbConfigNodeImpl12updateDbInfoEv
   fun:_ZN18StDbConfigNodeImplC1EP14StDbConfigNodeR8StDbNode
   fun:_ZN7StDbSql7QueryDbEP14StDbConfigNode
   fun:_ZN18StDbConfigNodeImpl9buildTreeEi
   fun:_ZN18StDbConfigNodeImpl9buildTreeEi
   fun:_ZN18StDbConfigNodeImpl9buildTreeEi
   fun:_ZN15StDbManagerImpl10initConfigE8StDbType10StDbDomainPKci
   fun:_ZN15StDbManagerImpl10initConfigEPKcS1_i
   fun:_ZN10StDbBroker10InitConfigEPKcRiPc
   fun:_ZN11St_db_Maker9OpenMySQLEPKc
   fun:_ZN11St_db_Maker4InitEv
   fun:_ZN7StMaker4InitEv
   fun:_ZN7StChain4InitEv
   fun:_ZN9StBFChain4InitEv
   fun:_ZL23G__StChain_Cint_572_0_6P8G__valuePKcP8G__parami
}
{
   Memcheck:Cond
   fun:strmake
   fun:cli_safe_read
   fun:cli_advanced_command
   fun:mysql_select_db
   fun:_ZN7MysqlDb12setDefaultDbEPKc
   fun:_ZN7StDbSql3useEv
   fun:_ZN14StDbServerImpl11addDataBaseE8StDbType10StDbDomain
   fun:_ZN15StDbManagerImpl10findServerE8StDbType10StDbDomain
   fun:_ZN15StDbManagerImpl11printDbNameE8StDbType10StDbDomain
   fun:_ZN15StDbManagerImpl18getExternalVersionE8StDbType10StDbDomain
   fun:_ZN18StDbConfigNodeImpl12updateDbInfoEv
   fun:_ZN18StDbConfigNodeImplC1EP14StDbConfigNodeR8StDbNode
   fun:_ZN7StDbSql7QueryDbEP14StDbConfigNode
   fun:_ZN18StDbConfigNodeImpl9buildTreeEi
   fun:_ZN18StDbConfigNodeImpl9buildTreeEi
   fun:_ZN18StDbConfigNodeImpl9buildTreeEi
   fun:_ZN15StDbManagerImpl10initConfigE8StDbType10StDbDomainPKci
   fun:_ZN15StDbManagerImpl10initConfigEPKcS1_i
   fun:_ZN10StDbBroker10InitConfigEPKcRiPc
   fun:_ZN11St_db_Maker9OpenMySQLEPKc
   fun:_ZN11St_db_Maker4InitEv
   fun:_ZN7StMaker4InitEv
   fun:_ZN7StChain4InitEv
   fun:_ZN9StBFChain4InitEv
}
{
   Memcheck:Cond
   fun:_ZN7MysqlDb12setDefaultDbEPKc
   fun:_ZN7StDbSql3useEv
   fun:_ZN14StDbServerImpl11addDataBaseE8StDbType10StDbDomain
   fun:_ZN15StDbManagerImpl10findServerE8StDbType10StDbDomain
   fun:_ZN15StDbManagerImpl11printDbNameE8StDbType10StDbDomain
   fun:_ZN15StDbManagerImpl18getExternalVersionE8StDbType10StDbDomain
   fun:_ZN18StDbConfigNodeImpl12updateDbInfoEv
   fun:_ZN18StDbConfigNodeImplC1EP14StDbConfigNodeR8StDbNode
   fun:_ZN7StDbSql7QueryDbEP14StDbConfigNode
   fun:_ZN18StDbConfigNodeImpl9buildTreeEi
   fun:_ZN18StDbConfigNodeImpl9buildTreeEi
   fun:_ZN18StDbConfigNodeImpl9buildTreeEi
   fun:_ZN15StDbManagerImpl10initConfigE8StDbType10StDbDomainPKci
   fun:_ZN15StDbManagerImpl10initConfigEPKcS1_i
   fun:_ZN10StDbBroker10InitConfigEPKcRiPc
   fun:_ZN11St_db_Maker9OpenMySQLEPKc
   fun:_ZN11St_db_Maker4InitEv
   fun:_ZN7StMaker4InitEv
   fun:_ZN7StChain4InitEv
   fun:_ZN9StBFChain4InitEv
   fun:_ZL23G__StChain_Cint_572_0_6P8G__valuePKcP8G__parami
   fun:_ZN4Cint19G__ExceptionWrapperEPFiP8G__valuePKcP8G__paramiES1_PcS5_i
   fun:G__execute_call
}
{
   Memcheck:Cond
   fun:inflate_fast
   fun:inflate
   fun:uncompress
   fun:my_uncompress
   fun:my_net_read
   fun:cli_safe_read
   obj:/usr/lib/mysql/libmysqlclient.so.16.0.0
   fun:mysql_real_query
   fun:_ZN7MysqlDb9ExecQueryEv
   fun:_ZN7MysqlDblsEPKc
   fun:_ZN7StDbSql7QueryDbEP14StDbConfigNode
   fun:_ZN18StDbConfigNodeImpl9buildTreeEi
   fun:_ZN18StDbConfigNodeImpl9buildTreeEi
   fun:_ZN18StDbConfigNodeImpl9buildTreeEi
   fun:_ZN18StDbConfigNodeImpl9buildTreeEi
   fun:_ZN15StDbManagerImpl10initConfigE8StDbType10StDbDomainPKci
   fun:_ZN15StDbManagerImpl10initConfigEPKcS1_i
   fun:_ZN10StDbBroker10InitConfigEPKcRiPc
   fun:_ZN11St_db_Maker9OpenMySQLEPKc
   fun:_ZN11St_db_Maker4InitEv
   fun:_ZN7StMaker4InitEv
   fun:_ZN7StChain4InitEv
   fun:_ZN9StBFChain4InitEv
   fun:_ZL23G__StChain_Cint_572_0_6P8G__valuePKcP8G__parami
}
{
   Memcheck:Cond
   fun:inflate
   fun:uncompress
   fun:my_uncompress
   fun:my_net_read
   fun:cli_safe_read
   obj:/usr/lib/mysql/libmysqlclient.so.16.0.0
   fun:mysql_real_query
   fun:_ZN7MysqlDb9ExecQueryEv
   fun:_ZN7MysqlDblsEPKc
   fun:_ZN7StDbSql7QueryDbEP14StDbConfigNode
   fun:_ZN18StDbConfigNodeImpl9buildTreeEi
   fun:_ZN18StDbConfigNodeImpl9buildTreeEi
   fun:_ZN18StDbConfigNodeImpl9buildTreeEi
   fun:_ZN18StDbConfigNodeImpl9buildTreeEi
   fun:_ZN15StDbManagerImpl10initConfigE8StDbType10StDbDomainPKci
   fun:_ZN15StDbManagerImpl10initConfigEPKcS1_i
   fun:_ZN10StDbBroker10InitConfigEPKcRiPc
   fun:_ZN11St_db_Maker9OpenMySQLEPKc
   fun:_ZN11St_db_Maker4InitEv
   fun:_ZN7StMaker4InitEv
   fun:_ZN7StChain4InitEv
   fun:_ZN9StBFChain4InitEv
   fun:_ZL23G__StChain_Cint_572_0_6P8G__valuePKcP8G__parami
   fun:_ZN4Cint19G__ExceptionWrapperEPFiP8G__valuePKcP8G__paramiES1_PcS5_i
}
{
   Memcheck:Value4
   fun:inflate
   fun:uncompress
   fun:my_uncompress
   fun:my_net_read
   fun:cli_safe_read
   obj:/usr/lib/mysql/libmysqlclient.so.16.0.0
   fun:mysql_real_query
   fun:_ZN7MysqlDb9ExecQueryEv
   fun:_ZN7MysqlDblsEPKc
   fun:_ZN7StDbSql7QueryDbEP14StDbConfigNode
   fun:_ZN18StDbConfigNodeImpl9buildTreeEi
   fun:_ZN18StDbConfigNodeImpl9buildTreeEi
   fun:_ZN18StDbConfigNodeImpl9buildTreeEi
   fun:_ZN18StDbConfigNodeImpl9buildTreeEi
   fun:_ZN15StDbManagerImpl10initConfigE8StDbType10StDbDomainPKci
   fun:_ZN15StDbManagerImpl10initConfigEPKcS1_i
   fun:_ZN10StDbBroker10InitConfigEPKcRiPc
   fun:_ZN11St_db_Maker9OpenMySQLEPKc
   fun:_ZN11St_db_Maker4InitEv
   fun:_ZN7StMaker4InitEv
   fun:_ZN7StChain4InitEv
   fun:_ZN9StBFChain4InitEv
   fun:_ZL23G__StChain_Cint_572_0_6P8G__valuePKcP8G__parami
   fun:_ZN4Cint19G__ExceptionWrapperEPFiP8G__valuePKcP8G__paramiES1_PcS5_i
}
{
   Memcheck:Value4
   fun:adler32
   fun:inflate
   fun:uncompress
   fun:my_uncompress
   fun:my_net_read
   fun:cli_safe_read
   obj:/usr/lib/mysql/libmysqlclient.so.16.0.0
   fun:mysql_real_query
   fun:_ZN7MysqlDb9ExecQueryEv
   fun:_ZN7MysqlDblsEPKc
   fun:_ZN7StDbSql7QueryDbEP14StDbConfigNode
   fun:_ZN18StDbConfigNodeImpl9buildTreeEi
   fun:_ZN18StDbConfigNodeImpl9buildTreeEi
   fun:_ZN18StDbConfigNodeImpl9buildTreeEi
   fun:_ZN18StDbConfigNodeImpl9buildTreeEi
   fun:_ZN15StDbManagerImpl10initConfigE8StDbType10StDbDomainPKci
   fun:_ZN15StDbManagerImpl10initConfigEPKcS1_i
   fun:_ZN10StDbBroker10InitConfigEPKcRiPc
   fun:_ZN11St_db_Maker9OpenMySQLEPKc
   fun:_ZN11St_db_Maker4InitEv
   fun:_ZN7StMaker4InitEv
   fun:_ZN7StChain4InitEv
   fun:_ZN9StBFChain4InitEv
   fun:_ZL23G__StChain_Cint_572_0_6P8G__valuePKcP8G__parami
}
{
   Memcheck:Cond
   fun:adler32
   fun:inflate
   fun:uncompress
   fun:my_uncompress
   fun:my_net_read
   fun:cli_safe_read
   obj:/usr/lib/mysql/libmysqlclient.so.16.0.0
   fun:mysql_real_query
   fun:_ZN7MysqlDb9ExecQueryEv
   fun:_ZN7MysqlDblsEPKc
   fun:_ZN7StDbSql7QueryDbEP14StDbConfigNode
   fun:_ZN18StDbConfigNodeImpl9buildTreeEi
   fun:_ZN18StDbConfigNodeImpl9buildTreeEi
   fun:_ZN18StDbConfigNodeImpl9buildTreeEi
   fun:_ZN18StDbConfigNodeImpl9buildTreeEi
   fun:_ZN15StDbManagerImpl10initConfigE8StDbType10StDbDomainPKci
   fun:_ZN15StDbManagerImpl10initConfigEPKcS1_i
   fun:_ZN10StDbBroker10InitConfigEPKcRiPc
   fun:_ZN11St_db_Maker9OpenMySQLEPKc
   fun:_ZN11St_db_Maker4InitEv
   fun:_ZN7StMaker4InitEv
   fun:_ZN7StChain4InitEv
   fun:_ZN9StBFChain4InitEv
   fun:_ZL23G__StChain_Cint_572_0_6P8G__valuePKcP8G__parami
}
{
   Memcheck:Cond
   fun:alloc_root
   fun:cli_read_rows
   fun:mysql_store_result
   fun:_ZN7MysqlDb9ExecQueryEv
   fun:_ZN7MysqlDblsEPKc
   fun:_ZN7StDbSql7QueryDbEP14StDbConfigNode
   fun:_ZN18StDbConfigNodeImpl9buildTreeEi
   fun:_ZN18StDbConfigNodeImpl9buildTreeEi
   fun:_ZN18StDbConfigNodeImpl9buildTreeEi
   fun:_ZN18StDbConfigNodeImpl9buildTreeEi
   fun:_ZN15StDbManagerImpl10initConfigE8StDbType10StDbDomainPKci
   fun:_ZN15StDbManagerImpl10initConfigEPKcS1_i
   fun:_ZN10StDbBroker10InitConfigEPKcRiPc
   fun:_ZN11St_db_Maker9OpenMySQLEPKc
   fun:_ZN11St_db_Maker4InitEv
   fun:_ZN7StMaker4InitEv
   fun:_ZN7StChain4InitEv
   fun:_ZN9StBFChain4InitEv
   fun:_ZL23G__StChain_Cint_572_0_6P8G__valuePKcP8G__parami
   fun:_ZN4Cint19G__ExceptionWrapperEPFiP8G__valuePKcP8G__paramiES1_PcS5_i
   fun:G__execute_call
}
{
   Memcheck:Cond
   fun:my_net_read
   fun:cli_safe_read
   fun:cli_read_rows
   fun:mysql_store_result
   fun:_ZN7MysqlDb9ExecQueryEv
   fun:_ZN7MysqlDblsEPKc
   fun:_ZN7StDbSql7QueryDbEP14StDbConfigNode
   fun:_ZN18StDbConfigNodeImpl9buildTreeEi
   fun:_ZN18StDbConfigNodeImpl9buildTreeEi
   fun:_ZN18StDbConfigNodeImpl9buildTreeEi
   fun:_ZN18StDbConfigNodeImpl9buildTreeEi
   fun:_ZN15StDbManagerImpl10initConfigE8StDbType10StDbDomainPKci
   fun:_ZN15StDbManagerImpl10initConfigEPKcS1_i
   fun:_ZN10StDbBroker10InitConfigEPKcRiPc
   fun:_ZN11St_db_Maker9OpenMySQLEPKc
   fun:_ZN11St_db_Maker4InitEv
   fun:_ZN7StMaker4InitEv
   fun:_ZN7StChain4InitEv
   fun:_ZN9StBFChain4InitEv
   fun:_ZL23G__StChain_Cint_572_0_6P8G__valuePKcP8G__parami
   fun:_ZN4Cint19G__ExceptionWrapperEPFiP8G__valuePKcP8G__paramiES1_PcS5_i
   fun:G__execute_call
}
{
   Memcheck:Cond
   fun:memmove
   fun:my_net_read
   fun:cli_safe_read
   fun:cli_read_rows
   fun:mysql_store_result
   fun:_ZN7MysqlDb9ExecQueryEv
   fun:_ZN7MysqlDblsEPKc
   fun:_ZN7StDbSql7QueryDbEP14StDbConfigNode
   fun:_ZN18StDbConfigNodeImpl9buildTreeEi
   fun:_ZN18StDbConfigNodeImpl9buildTreeEi
   fun:_ZN18StDbConfigNodeImpl9buildTreeEi
   fun:_ZN18StDbConfigNodeImpl9buildTreeEi
   fun:_ZN15StDbManagerImpl10initConfigE8StDbType10StDbDomainPKci
   fun:_ZN15StDbManagerImpl10initConfigEPKcS1_i
   fun:_ZN10StDbBroker10InitConfigEPKcRiPc
   fun:_ZN11St_db_Maker9OpenMySQLEPKc
   fun:_ZN11St_db_Maker4InitEv
   fun:_ZN7StMaker4InitEv
   fun:_ZN7StChain4InitEv
   fun:_ZN9StBFChain4InitEv
   fun:_ZL23G__StChain_Cint_572_0_6P8G__valuePKcP8G__parami
   fun:_ZN4Cint19G__ExceptionWrapperEPFiP8G__valuePKcP8G__paramiES1_PcS5_i
   fun:G__execute_call
}
{
   Memcheck:Value4
   fun:memmove
   fun:my_net_read
   fun:cli_safe_read
   fun:cli_read_rows
   fun:mysql_store_result
   fun:_ZN7MysqlDb9ExecQueryEv
   fun:_ZN7MysqlDblsEPKc
   fun:_ZN7StDbSql7QueryDbEP14StDbConfigNode
   fun:_ZN18StDbConfigNodeImpl9buildTreeEi
   fun:_ZN18StDbConfigNodeImpl9buildTreeEi
   fun:_ZN18StDbConfigNodeImpl9buildTreeEi
   fun:_ZN18StDbConfigNodeImpl9buildTreeEi
   fun:_ZN15StDbManagerImpl10initConfigE8StDbType10StDbDomainPKci
   fun:_ZN15StDbManagerImpl10initConfigEPKcS1_i
   fun:_ZN10StDbBroker10InitConfigEPKcRiPc
   fun:_ZN11St_db_Maker9OpenMySQLEPKc
   fun:_ZN11St_db_Maker4InitEv
   fun:_ZN7StMaker4InitEv
   fun:_ZN7StChain4InitEv
   fun:_ZN9StBFChain4InitEv
   fun:_ZL23G__StChain_Cint_572_0_6P8G__valuePKcP8G__parami
   fun:_ZN4Cint19G__ExceptionWrapperEPFiP8G__valuePKcP8G__paramiES1_PcS5_i
   fun:G__execute_call
}
{
   Memcheck:Value4
   obj:/usr/lib/mysql/libmysqlclient.so.16.0.0
   fun:my_net_read
   fun:cli_safe_read
   fun:cli_read_rows
   fun:mysql_store_result
   fun:_ZN7MysqlDb9ExecQueryEv
   fun:_ZN7MysqlDblsEPKc
   fun:_ZN7StDbSql7QueryDbEP14StDbConfigNode
   fun:_ZN18StDbConfigNodeImpl9buildTreeEi
   fun:_ZN18StDbConfigNodeImpl9buildTreeEi
   fun:_ZN18StDbConfigNodeImpl9buildTreeEi
   fun:_ZN18StDbConfigNodeImpl9buildTreeEi
   fun:_ZN15StDbManagerImpl10initConfigE8StDbType10StDbDomainPKci
   fun:_ZN15StDbManagerImpl10initConfigEPKcS1_i
   fun:_ZN10StDbBroker10InitConfigEPKcRiPc
   fun:_ZN11St_db_Maker9OpenMySQLEPKc
   fun:_ZN11St_db_Maker4InitEv
   fun:_ZN7StMaker4InitEv
   fun:_ZN7StChain4InitEv
   fun:_ZN9StBFChain4InitEv
   fun:_ZL23G__StChain_Cint_572_0_6P8G__valuePKcP8G__parami
   fun:_ZN4Cint19G__ExceptionWrapperEPFiP8G__valuePKcP8G__paramiES1_PcS5_i
   fun:G__execute_call
}
{
   Memcheck:Cond
   fun:inflate
   fun:uncompress
   fun:my_uncompress
   fun:my_net_read
   fun:cli_safe_read
   fun:cli_read_rows
   fun:mysql_store_result
   fun:_ZN7MysqlDb9ExecQueryEv
   fun:_ZN7MysqlDblsEPKc
   fun:_ZN7StDbSql7QueryDbEP14StDbConfigNode
   fun:_ZN18StDbConfigNodeImpl9buildTreeEi
   fun:_ZN18StDbConfigNodeImpl9buildTreeEi
   fun:_ZN18StDbConfigNodeImpl9buildTreeEi
   fun:_ZN18StDbConfigNodeImpl9buildTreeEi
   fun:_ZN15StDbManagerImpl10initConfigE8StDbType10StDbDomainPKci
   fun:_ZN15StDbManagerImpl10initConfigEPKcS1_i
   fun:_ZN10StDbBroker10InitConfigEPKcRiPc
   fun:_ZN11St_db_Maker9OpenMySQLEPKc
   fun:_ZN11St_db_Maker4InitEv
   fun:_ZN7StMaker4InitEv
   fun:_ZN7StChain4InitEv
   fun:_ZN9StBFChain4InitEv
   fun:_ZL23G__StChain_Cint_572_0_6P8G__valuePKcP8G__parami
   fun:_ZN4Cint19G__ExceptionWrapperEPFiP8G__valuePKcP8G__paramiES1_PcS5_i
}
{
   Memcheck:Value4
   fun:inflate
   fun:uncompress
   fun:my_uncompress
   fun:my_net_read
   fun:cli_safe_read
   fun:cli_read_rows
   fun:mysql_store_result
   fun:_ZN7MysqlDb9ExecQueryEv
   fun:_ZN7MysqlDblsEPKc
   fun:_ZN7StDbSql7QueryDbEP14StDbConfigNode
   fun:_ZN18StDbConfigNodeImpl9buildTreeEi
   fun:_ZN18StDbConfigNodeImpl9buildTreeEi
   fun:_ZN18StDbConfigNodeImpl9buildTreeEi
   fun:_ZN18StDbConfigNodeImpl9buildTreeEi
   fun:_ZN15StDbManagerImpl10initConfigE8StDbType10StDbDomainPKci
   fun:_ZN15StDbManagerImpl10initConfigEPKcS1_i
   fun:_ZN10StDbBroker10InitConfigEPKcRiPc
   fun:_ZN11St_db_Maker9OpenMySQLEPKc
   fun:_ZN11St_db_Maker4InitEv
   fun:_ZN7StMaker4InitEv
   fun:_ZN7StChain4InitEv
   fun:_ZN9StBFChain4InitEv
   fun:_ZL23G__StChain_Cint_572_0_6P8G__valuePKcP8G__parami
   fun:_ZN4Cint19G__ExceptionWrapperEPFiP8G__valuePKcP8G__paramiES1_PcS5_i
}
{
   Memcheck:Cond
   fun:memcpy
   fun:my_uncompress
   fun:my_net_read
   fun:cli_safe_read
   fun:cli_read_rows
   fun:mysql_store_result
   fun:_ZN7MysqlDb9ExecQueryEv
   fun:_ZN7MysqlDblsEPKc
   fun:_ZN7StDbSql7QueryDbEP14StDbConfigNode
   fun:_ZN18StDbConfigNodeImpl9buildTreeEi
   fun:_ZN18StDbConfigNodeImpl9buildTreeEi
   fun:_ZN18StDbConfigNodeImpl9buildTreeEi
   fun:_ZN18StDbConfigNodeImpl9buildTreeEi
   fun:_ZN15StDbManagerImpl10initConfigE8StDbType10StDbDomainPKci
   fun:_ZN15StDbManagerImpl10initConfigEPKcS1_i
   fun:_ZN10StDbBroker10InitConfigEPKcRiPc
   fun:_ZN11St_db_Maker9OpenMySQLEPKc
   fun:_ZN11St_db_Maker4InitEv
   fun:_ZN7StMaker4InitEv
   fun:_ZN7StChain4InitEv
   fun:_ZN9StBFChain4InitEv
   fun:_ZL23G__StChain_Cint_572_0_6P8G__valuePKcP8G__parami
   fun:_ZN4Cint19G__ExceptionWrapperEPFiP8G__valuePKcP8G__paramiES1_PcS5_i
   fun:G__execute_call
}
{
   Memcheck:Value4
   fun:inflate
   fun:uncompress
   fun:my_uncompress
   fun:my_net_read
   fun:cli_safe_read
   obj:/usr/lib/mysql/libmysqlclient.so.16.0.0
   fun:mysql_real_query
   fun:_ZN7MysqlDb9ExecQueryEv
   fun:_ZN7MysqlDblsEPKc
   fun:_ZN7StDbSql7QueryDbEP14StDbConfigNode
   fun:_ZN18StDbConfigNodeImpl9buildTreeEi
   fun:_ZN18StDbConfigNodeImpl9buildTreeEi
   fun:_ZN18StDbConfigNodeImpl9buildTreeEi
   fun:_ZN18StDbConfigNodeImpl9buildTreeEi
   fun:_ZN18StDbConfigNodeImpl9buildTreeEi
   fun:_ZN18StDbConfigNodeImpl9buildTreeEi
   fun:_ZN18StDbConfigNodeImpl9buildTreeEi
   fun:_ZN18StDbConfigNodeImpl9buildTreeEi
   fun:_ZN18StDbConfigNodeImpl9buildTreeEi
   fun:_ZN18StDbConfigNodeImpl9buildTreeEi
   fun:_ZN18StDbConfigNodeImpl9buildTreeEi
   fun:_ZN18StDbConfigNodeImpl9buildTreeEi
   fun:_ZN15StDbManagerImpl10initConfigE8StDbType10StDbDomainPKci
   fun:_ZN15StDbManagerImpl10initConfigEPKcS1_i
}
{
   Memcheck:Cond
   fun:net_realloc
   obj:/usr/lib/mysql/libmysqlclient.so.16.0.0
   fun:my_net_read
   fun:cli_safe_read
   obj:/usr/lib/mysql/libmysqlclient.so.16.0.0
   fun:mysql_real_query
   fun:_ZN7MysqlDb9ExecQueryEv
   fun:_ZN7MysqlDblsEPKc
   fun:_ZN7StDbSql14selectElementsEPKcP16StDbElementIndexRi
   fun:_ZN18StDbConfigNodeImpl13updateDbTableEP9StDbTablei
   fun:_ZN18StDbConfigNodeImpl14updateDbTablesEi
   fun:_ZN18StDbConfigNodeImpl9buildTreeEi
   fun:_ZN18StDbConfigNodeImpl9buildTreeEi
   fun:_ZN18StDbConfigNodeImpl9buildTreeEi
   fun:_ZN18StDbConfigNodeImpl9buildTreeEi
   fun:_ZN18StDbConfigNodeImpl9buildTreeEi
   fun:_ZN18StDbConfigNodeImpl9buildTreeEi
   fun:_ZN18StDbConfigNodeImpl9buildTreeEi
   fun:_ZN18StDbConfigNodeImpl9buildTreeEi
   fun:_ZN18StDbConfigNodeImpl9buildTreeEi
   fun:_ZN18StDbConfigNodeImpl9buildTreeEi
   fun:_ZN18StDbConfigNodeImpl9buildTreeEi
   fun:_ZN18StDbConfigNodeImpl9buildTreeEi
   fun:_ZN18StDbConfigNodeImpl9buildTreeEi
}
{
   Memcheck:Cond
   fun:realloc
   fun:my_realloc
   fun:net_realloc
   obj:/usr/lib/mysql/libmysqlclient.so.16.0.0
   fun:my_net_read
   fun:cli_safe_read
   obj:/usr/lib/mysql/libmysqlclient.so.16.0.0
   fun:mysql_real_query
   fun:_ZN7MysqlDb9ExecQueryEv
   fun:_ZN7MysqlDblsEPKc
   fun:_ZN7StDbSql14selectElementsEPKcP16StDbElementIndexRi
   fun:_ZN18StDbConfigNodeImpl13updateDbTableEP9StDbTablei
   fun:_ZN18StDbConfigNodeImpl14updateDbTablesEi
   fun:_ZN18StDbConfigNodeImpl9buildTreeEi
   fun:_ZN18StDbConfigNodeImpl9buildTreeEi
   fun:_ZN18StDbConfigNodeImpl9buildTreeEi
   fun:_ZN18StDbConfigNodeImpl9buildTreeEi
   fun:_ZN18StDbConfigNodeImpl9buildTreeEi
   fun:_ZN18StDbConfigNodeImpl9buildTreeEi
   fun:_ZN18StDbConfigNodeImpl9buildTreeEi
   fun:_ZN18StDbConfigNodeImpl9buildTreeEi
   fun:_ZN18StDbConfigNodeImpl9buildTreeEi
   fun:_ZN18StDbConfigNodeImpl9buildTreeEi
   fun:_ZN18StDbConfigNodeImpl9buildTreeEi
}
{
   Memcheck:Cond
   fun:memcpy
   fun:ssl3_read_bytes
   obj:/usr/lib/libssl.so.1.0.0
   fun:SSL_read
   fun:vio_ssl_read
   obj:/usr/lib/mysql/libmysqlclient.so.16.0.0
   fun:my_net_read
   fun:cli_safe_read
   obj:/usr/lib/mysql/libmysqlclient.so.16.0.0
   fun:mysql_real_query
   fun:_ZN7MysqlDb9ExecQueryEv
   fun:_ZN7MysqlDblsEPKc
   fun:_ZN7StDbSql14selectElementsEPKcP16StDbElementIndexRi
   fun:_ZN18StDbConfigNodeImpl13updateDbTableEP9StDbTablei
   fun:_ZN18StDbConfigNodeImpl14updateDbTablesEi
   fun:_ZN18StDbConfigNodeImpl9buildTreeEi
   fun:_ZN18StDbConfigNodeImpl9buildTreeEi
   fun:_ZN18StDbConfigNodeImpl9buildTreeEi
   fun:_ZN18StDbConfigNodeImpl9buildTreeEi
   fun:_ZN18StDbConfigNodeImpl9buildTreeEi
   fun:_ZN18StDbConfigNodeImpl9buildTreeEi
   fun:_ZN18StDbConfigNodeImpl9buildTreeEi
   fun:_ZN18StDbConfigNodeImpl9buildTreeEi
   fun:_ZN18StDbConfigNodeImpl9buildTreeEi
}
{
   Memcheck:Value4
   fun:memcpy
   fun:ssl3_read_bytes
   obj:/usr/lib/libssl.so.1.0.0
   fun:SSL_read
   fun:vio_ssl_read
   obj:/usr/lib/mysql/libmysqlclient.so.16.0.0
   fun:my_net_read
   fun:cli_safe_read
   obj:/usr/lib/mysql/libmysqlclient.so.16.0.0
   fun:mysql_real_query
   fun:_ZN7MysqlDb9ExecQueryEv
   fun:_ZN7MysqlDblsEPKc
   fun:_ZN7StDbSql14selectElementsEPKcP16StDbElementIndexRi
   fun:_ZN18StDbConfigNodeImpl13updateDbTableEP9StDbTablei
   fun:_ZN18StDbConfigNodeImpl14updateDbTablesEi
   fun:_ZN18StDbConfigNodeImpl9buildTreeEi
   fun:_ZN18StDbConfigNodeImpl9buildTreeEi
   fun:_ZN18StDbConfigNodeImpl9buildTreeEi
   fun:_ZN18StDbConfigNodeImpl9buildTreeEi
   fun:_ZN18StDbConfigNodeImpl9buildTreeEi
   fun:_ZN18StDbConfigNodeImpl9buildTreeEi
   fun:_ZN18StDbConfigNodeImpl9buildTreeEi
   fun:_ZN18StDbConfigNodeImpl9buildTreeEi
   fun:_ZN18StDbConfigNodeImpl9buildTreeEi
}
{
   Memcheck:Cond
   obj:/usr/lib/mysql/libmysqlclient.so.16.0.0
   fun:net_write_command
   fun:cli_advanced_command
   fun:mysql_send_query
   fun:mysql_real_query
   fun:_ZN7MysqlDb9ExecQueryEv
   fun:_ZN7MysqlDblsEPKc
   fun:_ZN7StDbSql14selectElementsEPKcP16StDbElementIndexRi
   fun:_ZN18StDbConfigNodeImpl13updateDbTableEP9StDbTablei
   fun:_ZN18StDbConfigNodeImpl14updateDbTablesEi
   fun:_ZN18StDbConfigNodeImpl9buildTreeEi
   fun:_ZN18StDbConfigNodeImpl9buildTreeEi
   fun:_ZN18StDbConfigNodeImpl9buildTreeEi
   fun:_ZN18StDbConfigNodeImpl9buildTreeEi
   fun:_ZN18StDbConfigNodeImpl9buildTreeEi
   fun:_ZN18StDbConfigNodeImpl9buildTreeEi
   fun:_ZN18StDbConfigNodeImpl9buildTreeEi
   fun:_ZN18StDbConfigNodeImpl9buildTreeEi
   fun:_ZN18StDbConfigNodeImpl9buildTreeEi
   fun:_ZN18StDbConfigNodeImpl9buildTreeEi
   fun:_ZN18StDbConfigNodeImpl9buildTreeEi
   fun:_ZN18StDbConfigNodeImpl9buildTreeEi
   fun:_ZN18StDbConfigNodeImpl9buildTreeEi
   fun:_ZN15StDbManagerImpl10initConfigE8StDbType10StDbDomainPKci
}
{
   Memcheck:Cond
   fun:inflate
   fun:uncompress
   fun:my_uncompress
   fun:my_net_read
   fun:cli_safe_read
   obj:/usr/lib/mysql/libmysqlclient.so.16.0.0
   fun:mysql_real_query
   fun:_ZN7MysqlDb9ExecQueryEv
   fun:_ZN7MysqlDblsEPKc
   fun:_ZN7StDbSql14selectElementsEPKcP16StDbElementIndexRi
   fun:_ZN18StDbConfigNodeImpl13updateDbTableEP9StDbTablei
   fun:_ZN18StDbConfigNodeImpl14updateDbTablesEi
   fun:_ZN18StDbConfigNodeImpl9buildTreeEi
   fun:_ZN18StDbConfigNodeImpl9buildTreeEi
   fun:_ZN18StDbConfigNodeImpl9buildTreeEi
   fun:_ZN18StDbConfigNodeImpl9buildTreeEi
   fun:_ZN18StDbConfigNodeImpl9buildTreeEi
   fun:_ZN18StDbConfigNodeImpl9buildTreeEi
   fun:_ZN18StDbConfigNodeImpl9buildTreeEi
   fun:_ZN18StDbConfigNodeImpl9buildTreeEi
   fun:_ZN18StDbConfigNodeImpl9buildTreeEi
   fun:_ZN18StDbConfigNodeImpl9buildTreeEi
   fun:_ZN18StDbConfigNodeImpl9buildTreeEi
   fun:_ZN18StDbConfigNodeImpl9buildTreeEi
}
{
   Memcheck:Value4
   fun:inflate
   fun:uncompress
   fun:my_uncompress
   fun:my_net_read
   fun:cli_safe_read
   obj:/usr/lib/mysql/libmysqlclient.so.16.0.0
   fun:mysql_real_query
   fun:_ZN7MysqlDb9ExecQueryEv
   fun:_ZN7MysqlDblsEPKc
   fun:_ZN7StDbSql14selectElementsEPKcP16StDbElementIndexRi
   fun:_ZN18StDbConfigNodeImpl13updateDbTableEP9StDbTablei
   fun:_ZN18StDbConfigNodeImpl14updateDbTablesEi
   fun:_ZN18StDbConfigNodeImpl9buildTreeEi
   fun:_ZN18StDbConfigNodeImpl9buildTreeEi
   fun:_ZN18StDbConfigNodeImpl9buildTreeEi
   fun:_ZN18StDbConfigNodeImpl9buildTreeEi
   fun:_ZN18StDbConfigNodeImpl9buildTreeEi
   fun:_ZN18StDbConfigNodeImpl9buildTreeEi
   fun:_ZN18StDbConfigNodeImpl9buildTreeEi
   fun:_ZN18StDbConfigNodeImpl9buildTreeEi
   fun:_ZN18StDbConfigNodeImpl9buildTreeEi
   fun:_ZN18StDbConfigNodeImpl9buildTreeEi
   fun:_ZN18StDbConfigNodeImpl9buildTreeEi
   fun:_ZN18StDbConfigNodeImpl9buildTreeEi
}
{
   Memcheck:Cond
   fun:alloc_root
   fun:cli_read_rows
   fun:mysql_store_result
   fun:_ZN7MysqlDb9ExecQueryEv
   fun:_ZN7MysqlDblsEPKc
   fun:_ZN7StDbSql14selectElementsEPKcP16StDbElementIndexRi
   fun:_ZN18StDbConfigNodeImpl13updateDbTableEP9StDbTablei
   fun:_ZN18StDbConfigNodeImpl14updateDbTablesEi
   fun:_ZN18StDbConfigNodeImpl9buildTreeEi
   fun:_ZN18StDbConfigNodeImpl9buildTreeEi
   fun:_ZN18StDbConfigNodeImpl9buildTreeEi
   fun:_ZN18StDbConfigNodeImpl9buildTreeEi
   fun:_ZN18StDbConfigNodeImpl9buildTreeEi
   fun:_ZN18StDbConfigNodeImpl9buildTreeEi
   fun:_ZN18StDbConfigNodeImpl9buildTreeEi
   fun:_ZN18StDbConfigNodeImpl9buildTreeEi
   fun:_ZN18StDbConfigNodeImpl9buildTreeEi
   fun:_ZN18StDbConfigNodeImpl9buildTreeEi
   fun:_ZN18StDbConfigNodeImpl9buildTreeEi
   fun:_ZN18StDbConfigNodeImpl9buildTreeEi
   fun:_ZN18StDbConfigNodeImpl9buildTreeEi
   fun:_ZN15StDbManagerImpl10initConfigE8StDbType10StDbDomainPKci
   fun:_ZN15StDbManagerImpl10initConfigEPKcS1_i
   fun:_ZN10StDbBroker10InitConfigEPKcRiPc
}
{
   Memcheck:Cond
   fun:memmove
   fun:my_net_read
   fun:cli_safe_read
   fun:cli_read_rows
   fun:mysql_store_result
   fun:_ZN7MysqlDb9ExecQueryEv
   fun:_ZN7MysqlDblsEPKc
   fun:_ZN7StDbSql14selectElementsEPKcP16StDbElementIndexRi
   fun:_ZN18StDbConfigNodeImpl13updateDbTableEP9StDbTablei
   fun:_ZN18StDbConfigNodeImpl14updateDbTablesEi
   fun:_ZN18StDbConfigNodeImpl9buildTreeEi
   fun:_ZN18StDbConfigNodeImpl9buildTreeEi
   fun:_ZN18StDbConfigNodeImpl9buildTreeEi
   fun:_ZN18StDbConfigNodeImpl9buildTreeEi
   fun:_ZN18StDbConfigNodeImpl9buildTreeEi
   fun:_ZN18StDbConfigNodeImpl9buildTreeEi
   fun:_ZN18StDbConfigNodeImpl9buildTreeEi
   fun:_ZN18StDbConfigNodeImpl9buildTreeEi
   fun:_ZN18StDbConfigNodeImpl9buildTreeEi
   fun:_ZN18StDbConfigNodeImpl9buildTreeEi
   fun:_ZN18StDbConfigNodeImpl9buildTreeEi
   fun:_ZN18StDbConfigNodeImpl9buildTreeEi
   fun:_ZN18StDbConfigNodeImpl9buildTreeEi
   fun:_ZN15StDbManagerImpl10initConfigE8StDbType10StDbDomainPKci
}
{
   Memcheck:Value4
   fun:memmove
   fun:my_net_read
   fun:cli_safe_read
   fun:cli_read_rows
   fun:mysql_store_result
   fun:_ZN7MysqlDb9ExecQueryEv
   fun:_ZN7MysqlDblsEPKc
   fun:_ZN7StDbSql14selectElementsEPKcP16StDbElementIndexRi
   fun:_ZN18StDbConfigNodeImpl13updateDbTableEP9StDbTablei
   fun:_ZN18StDbConfigNodeImpl14updateDbTablesEi
   fun:_ZN18StDbConfigNodeImpl9buildTreeEi
   fun:_ZN18StDbConfigNodeImpl9buildTreeEi
   fun:_ZN18StDbConfigNodeImpl9buildTreeEi
   fun:_ZN18StDbConfigNodeImpl9buildTreeEi
   fun:_ZN18StDbConfigNodeImpl9buildTreeEi
   fun:_ZN18StDbConfigNodeImpl9buildTreeEi
   fun:_ZN18StDbConfigNodeImpl9buildTreeEi
   fun:_ZN18StDbConfigNodeImpl9buildTreeEi
   fun:_ZN18StDbConfigNodeImpl9buildTreeEi
   fun:_ZN18StDbConfigNodeImpl9buildTreeEi
   fun:_ZN18StDbConfigNodeImpl9buildTreeEi
   fun:_ZN18StDbConfigNodeImpl9buildTreeEi
   fun:_ZN18StDbConfigNodeImpl9buildTreeEi
   fun:_ZN15StDbManagerImpl10initConfigE8StDbType10StDbDomainPKci
}
{
   Memcheck:Cond
   fun:memcpy
   fun:my_uncompress
   fun:my_net_read
   fun:cli_safe_read
   fun:cli_read_rows
   fun:mysql_store_result
   fun:_ZN7MysqlDb9ExecQueryEv
   fun:_ZN7MysqlDblsEPKc
   fun:_ZN7StDbSql14selectElementsEPKcP16StDbElementIndexRi
   fun:_ZN18StDbConfigNodeImpl13updateDbTableEP9StDbTablei
   fun:_ZN18StDbConfigNodeImpl14updateDbTablesEi
   fun:_ZN18StDbConfigNodeImpl9buildTreeEi
   fun:_ZN18StDbConfigNodeImpl9buildTreeEi
   fun:_ZN18StDbConfigNodeImpl9buildTreeEi
   fun:_ZN18StDbConfigNodeImpl9buildTreeEi
   fun:_ZN18StDbConfigNodeImpl9buildTreeEi
   fun:_ZN18StDbConfigNodeImpl9buildTreeEi
   fun:_ZN18StDbConfigNodeImpl9buildTreeEi
   fun:_ZN18StDbConfigNodeImpl9buildTreeEi
   fun:_ZN18StDbConfigNodeImpl9buildTreeEi
   fun:_ZN18StDbConfigNodeImpl9buildTreeEi
   fun:_ZN18StDbConfigNodeImpl9buildTreeEi
   fun:_ZN18StDbConfigNodeImpl9buildTreeEi
   fun:_ZN18StDbConfigNodeImpl9buildTreeEi
}
{
   Memcheck:Value4
   fun:memcpy
   fun:my_uncompress
   fun:my_net_read
   fun:cli_safe_read
   fun:cli_read_rows
   fun:mysql_store_result
   fun:_ZN7MysqlDb9ExecQueryEv
   fun:_ZN7MysqlDblsEPKc
   fun:_ZN7StDbSql14selectElementsEPKcP16StDbElementIndexRi
   fun:_ZN18StDbConfigNodeImpl13updateDbTableEP9StDbTablei
   fun:_ZN18StDbConfigNodeImpl14updateDbTablesEi
   fun:_ZN18StDbConfigNodeImpl9buildTreeEi
   fun:_ZN18StDbConfigNodeImpl9buildTreeEi
   fun:_ZN18StDbConfigNodeImpl9buildTreeEi
   fun:_ZN18StDbConfigNodeImpl9buildTreeEi
   fun:_ZN18StDbConfigNodeImpl9buildTreeEi
   fun:_ZN18StDbConfigNodeImpl9buildTreeEi
   fun:_ZN18StDbConfigNodeImpl9buildTreeEi
   fun:_ZN18StDbConfigNodeImpl9buildTreeEi
   fun:_ZN18StDbConfigNodeImpl9buildTreeEi
   fun:_ZN18StDbConfigNodeImpl9buildTreeEi
   fun:_ZN18StDbConfigNodeImpl9buildTreeEi
   fun:_ZN18StDbConfigNodeImpl9buildTreeEi
   fun:_ZN18StDbConfigNodeImpl9buildTreeEi
}
{
   Memcheck:Cond
   fun:memcpy
   fun:ssl3_read_bytes
   obj:/usr/lib/libssl.so.1.0.0
   fun:SSL_read
   fun:vio_ssl_read
   obj:/usr/lib/mysql/libmysqlclient.so.16.0.0
   fun:my_net_read
   fun:cli_safe_read
   fun:cli_read_rows
   fun:mysql_store_result
   fun:_ZN7MysqlDb9ExecQueryEv
   fun:_ZN7MysqlDblsEPKc
   fun:_ZN7StDbSql14selectElementsEPKcP16StDbElementIndexRi
   fun:_ZN18StDbConfigNodeImpl13updateDbTableEP9StDbTablei
   fun:_ZN18StDbConfigNodeImpl14updateDbTablesEi
   fun:_ZN18StDbConfigNodeImpl9buildTreeEi
   fun:_ZN18StDbConfigNodeImpl9buildTreeEi
   fun:_ZN18StDbConfigNodeImpl9buildTreeEi
   fun:_ZN18StDbConfigNodeImpl9buildTreeEi
   fun:_ZN18StDbConfigNodeImpl9buildTreeEi
   fun:_ZN18StDbConfigNodeImpl9buildTreeEi
   fun:_ZN18StDbConfigNodeImpl9buildTreeEi
   fun:_ZN18StDbConfigNodeImpl9buildTreeEi
   fun:_ZN18StDbConfigNodeImpl9buildTreeEi
}
{
   Memcheck:Value4
   fun:memcpy
   fun:ssl3_read_bytes
   obj:/usr/lib/libssl.so.1.0.0
   fun:SSL_read
   fun:vio_ssl_read
   obj:/usr/lib/mysql/libmysqlclient.so.16.0.0
   fun:my_net_read
   fun:cli_safe_read
   fun:cli_read_rows
   fun:mysql_store_result
   fun:_ZN7MysqlDb9ExecQueryEv
   fun:_ZN7MysqlDblsEPKc
   fun:_ZN7StDbSql14selectElementsEPKcP16StDbElementIndexRi
   fun:_ZN18StDbConfigNodeImpl13updateDbTableEP9StDbTablei
   fun:_ZN18StDbConfigNodeImpl14updateDbTablesEi
   fun:_ZN18StDbConfigNodeImpl9buildTreeEi
   fun:_ZN18StDbConfigNodeImpl9buildTreeEi
   fun:_ZN18StDbConfigNodeImpl9buildTreeEi
   fun:_ZN18StDbConfigNodeImpl9buildTreeEi
   fun:_ZN18StDbConfigNodeImpl9buildTreeEi
   fun:_ZN18StDbConfigNodeImpl9buildTreeEi
   fun:_ZN18StDbConfigNodeImpl9buildTreeEi
   fun:_ZN18StDbConfigNodeImpl9buildTreeEi
   fun:_ZN18StDbConfigNodeImpl9buildTreeEi
}
{
   Memcheck:Value4
   fun:inflate
   fun:uncompress
   fun:my_uncompress
   fun:my_net_read
   fun:cli_safe_read
   fun:cli_read_rows
   fun:mysql_store_result
   fun:_ZN7MysqlDb9ExecQueryEv
   fun:_ZN7MysqlDblsEPKc
   fun:_ZN7StDbSql14selectElementsEPKcP16StDbElementIndexRi
   fun:_ZN18StDbConfigNodeImpl13updateDbTableEP9StDbTablei
   fun:_ZN18StDbConfigNodeImpl14updateDbTablesEi
   fun:_ZN18StDbConfigNodeImpl9buildTreeEi
   fun:_ZN18StDbConfigNodeImpl9buildTreeEi
   fun:_ZN18StDbConfigNodeImpl9buildTreeEi
   fun:_ZN18StDbConfigNodeImpl9buildTreeEi
   fun:_ZN18StDbConfigNodeImpl9buildTreeEi
   fun:_ZN18StDbConfigNodeImpl9buildTreeEi
   fun:_ZN18StDbConfigNodeImpl9buildTreeEi
   fun:_ZN18StDbConfigNodeImpl9buildTreeEi
   fun:_ZN18StDbConfigNodeImpl9buildTreeEi
   fun:_ZN18StDbConfigNodeImpl9buildTreeEi
   fun:_ZN18StDbConfigNodeImpl9buildTreeEi
   fun:_ZN18StDbConfigNodeImpl9buildTreeEi
}
{
   Memcheck:Cond
   fun:memcpy
   fun:MD5_Update
   obj:/usr/lib/libcrypto.so.1.0.0
   fun:EVP_DigestUpdate
   fun:ssl3_finish_mac
   fun:ssl3_get_message
   fun:ssl3_get_finished
   fun:ssl3_connect
   fun:SSL_connect
   obj:/usr/lib/mysql/libmysqlclient.so.16.0.0
   fun:mysql_real_connect
   fun:_ZN7MysqlDb9reConnectEv
   fun:_ZN7MysqlDb7ConnectEPKcS1_S1_S1_i
   fun:_ZN14StDbServerImpl5useDbEv
   fun:_ZN15StDbManagerImpl14updateUnixTimeER8StDbTime
   fun:_ZN15StDbManagerImpl14setRequestTimeEPKc
   fun:_ZN10StDbBroker11SetDateTimeEii
   fun:_ZN11St_db_Maker11UpdateTableEjP6TTableRK7TDatimePS2_
   fun:_ZN11St_db_Maker13UpdateValiSetEP9StValiSetRK7TDatime
   fun:_ZN11St_db_Maker8UpdateDBEP8TDataSetPv
   fun:_ZN8TDataSet4PassEPFNS_12EDataSetPassEPS_PvES2_i
   fun:_ZN11St_db_Maker11GetDataBaseEPKcPK7TDatime
   fun:_ZN7StMaker11GetDataBaseEPKcPK7TDatime
   fun:_ZN13St_MagFactorC8instanceEv
}
{
   Memcheck:Cond
   fun:memcpy
   fun:SHA1_Update
   obj:/usr/lib/libcrypto.so.1.0.0
   fun:EVP_DigestUpdate
   fun:ssl3_finish_mac
   fun:ssl3_get_message
   fun:ssl3_get_finished
   fun:ssl3_connect
   fun:SSL_connect
   obj:/usr/lib/mysql/libmysqlclient.so.16.0.0
   fun:mysql_real_connect
   fun:_ZN7MysqlDb9reConnectEv
   fun:_ZN7MysqlDb7ConnectEPKcS1_S1_S1_i
   fun:_ZN14StDbServerImpl5useDbEv
   fun:_ZN15StDbManagerImpl14updateUnixTimeER8StDbTime
   fun:_ZN15StDbManagerImpl14setRequestTimeEPKc
   fun:_ZN10StDbBroker11SetDateTimeEii
   fun:_ZN11St_db_Maker11UpdateTableEjP6TTableRK7TDatimePS2_
   fun:_ZN11St_db_Maker13UpdateValiSetEP9StValiSetRK7TDatime
   fun:_ZN11St_db_Maker8UpdateDBEP8TDataSetPv
   fun:_ZN8TDataSet4PassEPFNS_12EDataSetPassEPS_PvES2_i
   fun:_ZN11St_db_Maker11GetDataBaseEPKcPK7TDatime
   fun:_ZN7StMaker11GetDataBaseEPKcPK7TDatime
   fun:_ZN13St_MagFactorC8instanceEv
}
{
   Memcheck:Cond
   fun:cli_safe_read
   obj:/usr/lib/mysql/libmysqlclient.so.16.0.0
   fun:mysql_real_query
   fun:_ZN7MysqlDb9ExecQueryEv
   fun:_ZN7MysqlDblsEPKc
   fun:_ZN7StDbSql11getUnixTimeEPKc
   fun:_ZN15StDbManagerImpl14updateUnixTimeER8StDbTime
   fun:_ZN15StDbManagerImpl14setRequestTimeEPKc
   fun:_ZN10StDbBroker11SetDateTimeEii
   fun:_ZN11St_db_Maker11UpdateTableEjP6TTableRK7TDatimePS2_
   fun:_ZN11St_db_Maker13UpdateValiSetEP9StValiSetRK7TDatime
   fun:_ZN11St_db_Maker8UpdateDBEP8TDataSetPv
   fun:_ZN8TDataSet4PassEPFNS_12EDataSetPassEPS_PvES2_i
   fun:_ZN11St_db_Maker11GetDataBaseEPKcPK7TDatime
   fun:_ZN7StMaker11GetDataBaseEPKcPK7TDatime
   fun:_ZN13St_MagFactorC8instanceEv
   fun:_ZN11StMagFMaker7InitRunEi
   fun:_ZN7StMaker4MakeEv
   fun:_ZN7StChain4MakeEv
   fun:_ZN9StBFChain4MakeEv
   fun:_ZN7StMaker5IMakeEi
   fun:_ZN7StChain4MakeEi
   fun:_ZN9StBFChain4MakeEi
   fun:_ZN7StChain9EventLoopEiiP7StMaker
}
{
   Memcheck:Cond
   obj:/usr/lib/mysql/libmysqlclient.so.16.0.0
   fun:mysql_real_query
   fun:_ZN7MysqlDb9ExecQueryEv
   fun:_ZN7MysqlDblsEPKc
   fun:_ZN7StDbSql11getUnixTimeEPKc
   fun:_ZN15StDbManagerImpl14updateUnixTimeER8StDbTime
   fun:_ZN15StDbManagerImpl14setRequestTimeEPKc
   fun:_ZN10StDbBroker11SetDateTimeEii
   fun:_ZN11St_db_Maker11UpdateTableEjP6TTableRK7TDatimePS2_
   fun:_ZN11St_db_Maker13UpdateValiSetEP9StValiSetRK7TDatime
   fun:_ZN11St_db_Maker8UpdateDBEP8TDataSetPv
   fun:_ZN8TDataSet4PassEPFNS_12EDataSetPassEPS_PvES2_i
   fun:_ZN11St_db_Maker11GetDataBaseEPKcPK7TDatime
   fun:_ZN7StMaker11GetDataBaseEPKcPK7TDatime
   fun:_ZN13St_MagFactorC8instanceEv
   fun:_ZN11StMagFMaker7InitRunEi
   fun:_ZN7StMaker4MakeEv
   fun:_ZN7StChain4MakeEv
   fun:_ZN9StBFChain4MakeEv
   fun:_ZN7StMaker5IMakeEi
   fun:_ZN7StChain4MakeEi
   fun:_ZN9StBFChain4MakeEi
   fun:_ZN7StChain9EventLoopEiiP7StMaker
   fun:_ZL23G__StChain_Cint_578_0_9P8G__valuePKcP8G__parami
}
{
   Memcheck:Cond
   fun:net_field_length
   obj:/usr/lib/mysql/libmysqlclient.so.16.0.0
   fun:mysql_real_query
   fun:_ZN7MysqlDb9ExecQueryEv
   fun:_ZN7MysqlDblsEPKc
   fun:_ZN7StDbSql11getUnixTimeEPKc
   fun:_ZN15StDbManagerImpl14updateUnixTimeER8StDbTime
   fun:_ZN15StDbManagerImpl14setRequestTimeEPKc
   fun:_ZN10StDbBroker11SetDateTimeEii
   fun:_ZN11St_db_Maker11UpdateTableEjP6TTableRK7TDatimePS2_
   fun:_ZN11St_db_Maker13UpdateValiSetEP9StValiSetRK7TDatime
   fun:_ZN11St_db_Maker8UpdateDBEP8TDataSetPv
   fun:_ZN8TDataSet4PassEPFNS_12EDataSetPassEPS_PvES2_i
   fun:_ZN11St_db_Maker11GetDataBaseEPKcPK7TDatime
   fun:_ZN7StMaker11GetDataBaseEPKcPK7TDatime
   fun:_ZN13St_MagFactorC8instanceEv
   fun:_ZN11StMagFMaker7InitRunEi
   fun:_ZN7StMaker4MakeEv
   fun:_ZN7StChain4MakeEv
   fun:_ZN9StBFChain4MakeEv
   fun:_ZN7StMaker5IMakeEi
   fun:_ZN7StChain4MakeEi
   fun:_ZN9StBFChain4MakeEi
   fun:_ZN7StChain9EventLoopEiiP7StMaker
}
{
   Memcheck:Cond
   fun:cli_safe_read
   fun:cli_read_rows
   obj:/usr/lib/mysql/libmysqlclient.so.16.0.0
   fun:mysql_real_query
   fun:_ZN7MysqlDb9ExecQueryEv
   fun:_ZN7MysqlDblsEPKc
   fun:_ZN7StDbSql11getUnixTimeEPKc
   fun:_ZN15StDbManagerImpl14updateUnixTimeER8StDbTime
   fun:_ZN15StDbManagerImpl14setRequestTimeEPKc
   fun:_ZN10StDbBroker11SetDateTimeEii
   fun:_ZN11St_db_Maker11UpdateTableEjP6TTableRK7TDatimePS2_
   fun:_ZN11St_db_Maker13UpdateValiSetEP9StValiSetRK7TDatime
   fun:_ZN11St_db_Maker8UpdateDBEP8TDataSetPv
   fun:_ZN8TDataSet4PassEPFNS_12EDataSetPassEPS_PvES2_i
   fun:_ZN11St_db_Maker11GetDataBaseEPKcPK7TDatime
   fun:_ZN7StMaker11GetDataBaseEPKcPK7TDatime
   fun:_ZN13St_MagFactorC8instanceEv
   fun:_ZN11StMagFMaker7InitRunEi
   fun:_ZN7StMaker4MakeEv
   fun:_ZN7StChain4MakeEv
   fun:_ZN9StBFChain4MakeEv
   fun:_ZN7StMaker5IMakeEi
   fun:_ZN7StChain4MakeEi
   fun:_ZN9StBFChain4MakeEi
}
{
   Memcheck:Cond
   fun:cli_read_rows
   obj:/usr/lib/mysql/libmysqlclient.so.16.0.0
   fun:mysql_real_query
   fun:_ZN7MysqlDb9ExecQueryEv
   fun:_ZN7MysqlDblsEPKc
   fun:_ZN7StDbSql11getUnixTimeEPKc
   fun:_ZN15StDbManagerImpl14updateUnixTimeER8StDbTime
   fun:_ZN15StDbManagerImpl14setRequestTimeEPKc
   fun:_ZN10StDbBroker11SetDateTimeEii
   fun:_ZN11St_db_Maker11UpdateTableEjP6TTableRK7TDatimePS2_
   fun:_ZN11St_db_Maker13UpdateValiSetEP9StValiSetRK7TDatime
   fun:_ZN11St_db_Maker8UpdateDBEP8TDataSetPv
   fun:_ZN8TDataSet4PassEPFNS_12EDataSetPassEPS_PvES2_i
   fun:_ZN11St_db_Maker11GetDataBaseEPKcPK7TDatime
   fun:_ZN7StMaker11GetDataBaseEPKcPK7TDatime
   fun:_ZN13St_MagFactorC8instanceEv
   fun:_ZN11StMagFMaker7InitRunEi
   fun:_ZN7StMaker4MakeEv
   fun:_ZN7StChain4MakeEv
   fun:_ZN9StBFChain4MakeEv
   fun:_ZN7StMaker5IMakeEi
   fun:_ZN7StChain4MakeEi
   fun:_ZN9StBFChain4MakeEi
   fun:_ZN7StChain9EventLoopEiiP7StMaker
}
{
   Memcheck:Cond
   fun:net_field_length
   fun:cli_read_rows
   obj:/usr/lib/mysql/libmysqlclient.so.16.0.0
   fun:mysql_real_query
   fun:_ZN7MysqlDb9ExecQueryEv
   fun:_ZN7MysqlDblsEPKc
   fun:_ZN7StDbSql11getUnixTimeEPKc
   fun:_ZN15StDbManagerImpl14updateUnixTimeER8StDbTime
   fun:_ZN15StDbManagerImpl14setRequestTimeEPKc
   fun:_ZN10StDbBroker11SetDateTimeEii
   fun:_ZN11St_db_Maker11UpdateTableEjP6TTableRK7TDatimePS2_
   fun:_ZN11St_db_Maker13UpdateValiSetEP9StValiSetRK7TDatime
   fun:_ZN11St_db_Maker8UpdateDBEP8TDataSetPv
   fun:_ZN8TDataSet4PassEPFNS_12EDataSetPassEPS_PvES2_i
   fun:_ZN11St_db_Maker11GetDataBaseEPKcPK7TDatime
   fun:_ZN7StMaker11GetDataBaseEPKcPK7TDatime
   fun:_ZN13St_MagFactorC8instanceEv
   fun:_ZN11StMagFMaker7InitRunEi
   fun:_ZN7StMaker4MakeEv
   fun:_ZN7StChain4MakeEv
   fun:_ZN9StBFChain4MakeEv
   fun:_ZN7StMaker5IMakeEi
   fun:_ZN7StChain4MakeEi
   fun:_ZN9StBFChain4MakeEi
}
{
   Memcheck:Cond
   fun:memcpy
   fun:cli_read_rows
   obj:/usr/lib/mysql/libmysqlclient.so.16.0.0
   fun:mysql_real_query
   fun:_ZN7MysqlDb9ExecQueryEv
   fun:_ZN7MysqlDblsEPKc
   fun:_ZN7StDbSql11getUnixTimeEPKc
   fun:_ZN15StDbManagerImpl14updateUnixTimeER8StDbTime
   fun:_ZN15StDbManagerImpl14setRequestTimeEPKc
   fun:_ZN10StDbBroker11SetDateTimeEii
   fun:_ZN11St_db_Maker11UpdateTableEjP6TTableRK7TDatimePS2_
   fun:_ZN11St_db_Maker13UpdateValiSetEP9StValiSetRK7TDatime
   fun:_ZN11St_db_Maker8UpdateDBEP8TDataSetPv
   fun:_ZN8TDataSet4PassEPFNS_12EDataSetPassEPS_PvES2_i
   fun:_ZN11St_db_Maker11GetDataBaseEPKcPK7TDatime
   fun:_ZN7StMaker11GetDataBaseEPKcPK7TDatime
   fun:_ZN13St_MagFactorC8instanceEv
   fun:_ZN11StMagFMaker7InitRunEi
   fun:_ZN7StMaker4MakeEv
   fun:_ZN7StChain4MakeEv
   fun:_ZN9StBFChain4MakeEv
   fun:_ZN7StMaker5IMakeEi
   fun:_ZN7StChain4MakeEi
   fun:_ZN9StBFChain4MakeEi
}
{
   Memcheck:Cond
   fun:alloc_root
   fun:unpack_fields
   obj:/usr/lib/mysql/libmysqlclient.so.16.0.0
   fun:mysql_real_query
   fun:_ZN7MysqlDb9ExecQueryEv
   fun:_ZN7MysqlDblsEPKc
   fun:_ZN7StDbSql11getUnixTimeEPKc
   fun:_ZN15StDbManagerImpl14updateUnixTimeER8StDbTime
   fun:_ZN15StDbManagerImpl14setRequestTimeEPKc
   fun:_ZN10StDbBroker11SetDateTimeEii
   fun:_ZN11St_db_Maker11UpdateTableEjP6TTableRK7TDatimePS2_
   fun:_ZN11St_db_Maker13UpdateValiSetEP9StValiSetRK7TDatime
   fun:_ZN11St_db_Maker8UpdateDBEP8TDataSetPv
   fun:_ZN8TDataSet4PassEPFNS_12EDataSetPassEPS_PvES2_i
   fun:_ZN11St_db_Maker11GetDataBaseEPKcPK7TDatime
   fun:_ZN7StMaker11GetDataBaseEPKcPK7TDatime
   fun:_ZN13St_MagFactorC8instanceEv
   fun:_ZN11StMagFMaker7InitRunEi
   fun:_ZN7StMaker4MakeEv
   fun:_ZN7StChain4MakeEv
   fun:_ZN9StBFChain4MakeEv
   fun:_ZN7StMaker5IMakeEi
   fun:_ZN7StChain4MakeEi
   fun:_ZN9StBFChain4MakeEi
}
{
   Memcheck:Cond
   fun:unpack_fields
   obj:/usr/lib/mysql/libmysqlclient.so.16.0.0
   fun:mysql_real_query
   fun:_ZN7MysqlDb9ExecQueryEv
   fun:_ZN7MysqlDblsEPKc
   fun:_ZN7StDbSql11getUnixTimeEPKc
   fun:_ZN15StDbManagerImpl14updateUnixTimeER8StDbTime
   fun:_ZN15StDbManagerImpl14setRequestTimeEPKc
   fun:_ZN10StDbBroker11SetDateTimeEii
   fun:_ZN11St_db_Maker11UpdateTableEjP6TTableRK7TDatimePS2_
   fun:_ZN11St_db_Maker13UpdateValiSetEP9StValiSetRK7TDatime
   fun:_ZN11St_db_Maker8UpdateDBEP8TDataSetPv
   fun:_ZN8TDataSet4PassEPFNS_12EDataSetPassEPS_PvES2_i
   fun:_ZN11St_db_Maker11GetDataBaseEPKcPK7TDatime
   fun:_ZN7StMaker11GetDataBaseEPKcPK7TDatime
   fun:_ZN13St_MagFactorC8instanceEv
   fun:_ZN11StMagFMaker7InitRunEi
   fun:_ZN7StMaker4MakeEv
   fun:_ZN7StChain4MakeEv
   fun:_ZN9StBFChain4MakeEv
   fun:_ZN7StMaker5IMakeEi
   fun:_ZN7StChain4MakeEi
   fun:_ZN9StBFChain4MakeEi
   fun:_ZN7StChain9EventLoopEiiP7StMaker
}
{
   Memcheck:Cond
   fun:memset
   fun:unpack_fields
   obj:/usr/lib/mysql/libmysqlclient.so.16.0.0
   fun:mysql_real_query
   fun:_ZN7MysqlDb9ExecQueryEv
   fun:_ZN7MysqlDblsEPKc
   fun:_ZN7StDbSql11getUnixTimeEPKc
   fun:_ZN15StDbManagerImpl14updateUnixTimeER8StDbTime
   fun:_ZN15StDbManagerImpl14setRequestTimeEPKc
   fun:_ZN10StDbBroker11SetDateTimeEii
   fun:_ZN11St_db_Maker11UpdateTableEjP6TTableRK7TDatimePS2_
   fun:_ZN11St_db_Maker13UpdateValiSetEP9StValiSetRK7TDatime
   fun:_ZN11St_db_Maker8UpdateDBEP8TDataSetPv
   fun:_ZN8TDataSet4PassEPFNS_12EDataSetPassEPS_PvES2_i
   fun:_ZN11St_db_Maker11GetDataBaseEPKcPK7TDatime
   fun:_ZN7StMaker11GetDataBaseEPKcPK7TDatime
   fun:_ZN13St_MagFactorC8instanceEv
   fun:_ZN11StMagFMaker7InitRunEi
   fun:_ZN7StMaker4MakeEv
   fun:_ZN7StChain4MakeEv
   fun:_ZN9StBFChain4MakeEv
   fun:_ZN7StMaker5IMakeEi
   fun:_ZN7StChain4MakeEi
   fun:_ZN9StBFChain4MakeEi
}
{
   Memcheck:Value4
   fun:memset
   fun:unpack_fields
   obj:/usr/lib/mysql/libmysqlclient.so.16.0.0
   fun:mysql_real_query
   fun:_ZN7MysqlDb9ExecQueryEv
   fun:_ZN7MysqlDblsEPKc
   fun:_ZN7StDbSql11getUnixTimeEPKc
   fun:_ZN15StDbManagerImpl14updateUnixTimeER8StDbTime
   fun:_ZN15StDbManagerImpl14setRequestTimeEPKc
   fun:_ZN10StDbBroker11SetDateTimeEii
   fun:_ZN11St_db_Maker11UpdateTableEjP6TTableRK7TDatimePS2_
   fun:_ZN11St_db_Maker13UpdateValiSetEP9StValiSetRK7TDatime
   fun:_ZN11St_db_Maker8UpdateDBEP8TDataSetPv
   fun:_ZN8TDataSet4PassEPFNS_12EDataSetPassEPS_PvES2_i
   fun:_ZN11St_db_Maker11GetDataBaseEPKcPK7TDatime
   fun:_ZN7StMaker11GetDataBaseEPKcPK7TDatime
   fun:_ZN13St_MagFactorC8instanceEv
   fun:_ZN11StMagFMaker7InitRunEi
   fun:_ZN7StMaker4MakeEv
   fun:_ZN7StChain4MakeEv
   fun:_ZN9StBFChain4MakeEv
   fun:_ZN7StMaker5IMakeEi
   fun:_ZN7StChain4MakeEi
   fun:_ZN9StBFChain4MakeEi
}
{
   Memcheck:Cond
   fun:memcpy
   fun:strmake_root
   fun:unpack_fields
   obj:/usr/lib/mysql/libmysqlclient.so.16.0.0
   fun:mysql_real_query
   fun:_ZN7MysqlDb9ExecQueryEv
   fun:_ZN7MysqlDblsEPKc
   fun:_ZN7StDbSql11getUnixTimeEPKc
   fun:_ZN15StDbManagerImpl14updateUnixTimeER8StDbTime
   fun:_ZN15StDbManagerImpl14setRequestTimeEPKc
   fun:_ZN10StDbBroker11SetDateTimeEii
   fun:_ZN11St_db_Maker11UpdateTableEjP6TTableRK7TDatimePS2_
   fun:_ZN11St_db_Maker13UpdateValiSetEP9StValiSetRK7TDatime
   fun:_ZN11St_db_Maker8UpdateDBEP8TDataSetPv
   fun:_ZN8TDataSet4PassEPFNS_12EDataSetPassEPS_PvES2_i
   fun:_ZN11St_db_Maker11GetDataBaseEPKcPK7TDatime
   fun:_ZN7StMaker11GetDataBaseEPKcPK7TDatime
   fun:_ZN13St_MagFactorC8instanceEv
   fun:_ZN11StMagFMaker7InitRunEi
   fun:_ZN7StMaker4MakeEv
   fun:_ZN7StChain4MakeEv
   fun:_ZN9StBFChain4MakeEv
   fun:_ZN7StMaker5IMakeEi
   fun:_ZN7StChain4MakeEi
}
{
   Memcheck:Value4
   fun:unpack_fields
   obj:/usr/lib/mysql/libmysqlclient.so.16.0.0
   fun:mysql_real_query
   fun:_ZN7MysqlDb9ExecQueryEv
   fun:_ZN7MysqlDblsEPKc
   fun:_ZN7StDbSql11getUnixTimeEPKc
   fun:_ZN15StDbManagerImpl14updateUnixTimeER8StDbTime
   fun:_ZN15StDbManagerImpl14setRequestTimeEPKc
   fun:_ZN10StDbBroker11SetDateTimeEii
   fun:_ZN11St_db_Maker11UpdateTableEjP6TTableRK7TDatimePS2_
   fun:_ZN11St_db_Maker13UpdateValiSetEP9StValiSetRK7TDatime
   fun:_ZN11St_db_Maker8UpdateDBEP8TDataSetPv
   fun:_ZN8TDataSet4PassEPFNS_12EDataSetPassEPS_PvES2_i
   fun:_ZN11St_db_Maker11GetDataBaseEPKcPK7TDatime
   fun:_ZN7StMaker11GetDataBaseEPKcPK7TDatime
   fun:_ZN13St_MagFactorC8instanceEv
   fun:_ZN11StMagFMaker7InitRunEi
   fun:_ZN7StMaker4MakeEv
   fun:_ZN7StChain4MakeEv
   fun:_ZN9StBFChain4MakeEv
   fun:_ZN7StMaker5IMakeEi
   fun:_ZN7StChain4MakeEi
   fun:_ZN9StBFChain4MakeEi
   fun:_ZN7StChain9EventLoopEiiP7StMaker
}
{
   Memcheck:Cond
   fun:mysql_store_result
   fun:_ZN7MysqlDb9ExecQueryEv
   fun:_ZN7MysqlDblsEPKc
   fun:_ZN7StDbSql11getUnixTimeEPKc
   fun:_ZN15StDbManagerImpl14updateUnixTimeER8StDbTime
   fun:_ZN15StDbManagerImpl14setRequestTimeEPKc
   fun:_ZN10StDbBroker11SetDateTimeEii
   fun:_ZN11St_db_Maker11UpdateTableEjP6TTableRK7TDatimePS2_
   fun:_ZN11St_db_Maker13UpdateValiSetEP9StValiSetRK7TDatime
   fun:_ZN11St_db_Maker8UpdateDBEP8TDataSetPv
   fun:_ZN8TDataSet4PassEPFNS_12EDataSetPassEPS_PvES2_i
   fun:_ZN11St_db_Maker11GetDataBaseEPKcPK7TDatime
   fun:_ZN7StMaker11GetDataBaseEPKcPK7TDatime
   fun:_ZN13St_MagFactorC8instanceEv
   fun:_ZN11StMagFMaker7InitRunEi
   fun:_ZN7StMaker4MakeEv
   fun:_ZN7StChain4MakeEv
   fun:_ZN9StBFChain4MakeEv
   fun:_ZN7StMaker5IMakeEi
   fun:_ZN7StChain4MakeEi
   fun:_ZN9StBFChain4MakeEi
   fun:_ZN7StChain9EventLoopEiiP7StMaker
   fun:_ZL23G__StChain_Cint_578_0_9P8G__valuePKcP8G__parami
   fun:_ZN4Cint19G__ExceptionWrapperEPFiP8G__valuePKcP8G__paramiES1_PcS5_i
}
{
   Memcheck:Cond
   fun:memset
   fun:my_malloc
   fun:mysql_store_result
   fun:_ZN7MysqlDb9ExecQueryEv
   fun:_ZN7MysqlDblsEPKc
   fun:_ZN7StDbSql11getUnixTimeEPKc
   fun:_ZN15StDbManagerImpl14updateUnixTimeER8StDbTime
   fun:_ZN15StDbManagerImpl14setRequestTimeEPKc
   fun:_ZN10StDbBroker11SetDateTimeEii
   fun:_ZN11St_db_Maker11UpdateTableEjP6TTableRK7TDatimePS2_
   fun:_ZN11St_db_Maker13UpdateValiSetEP9StValiSetRK7TDatime
   fun:_ZN11St_db_Maker8UpdateDBEP8TDataSetPv
   fun:_ZN8TDataSet4PassEPFNS_12EDataSetPassEPS_PvES2_i
   fun:_ZN11St_db_Maker11GetDataBaseEPKcPK7TDatime
   fun:_ZN7StMaker11GetDataBaseEPKcPK7TDatime
   fun:_ZN13St_MagFactorC8instanceEv
   fun:_ZN11StMagFMaker7InitRunEi
   fun:_ZN7StMaker4MakeEv
   fun:_ZN7StChain4MakeEv
   fun:_ZN9StBFChain4MakeEv
   fun:_ZN7StMaker5IMakeEi
   fun:_ZN7StChain4MakeEi
   fun:_ZN9StBFChain4MakeEi
   fun:_ZN7StChain9EventLoopEiiP7StMaker
}
{
   Memcheck:Cond
   fun:cli_read_rows
   fun:mysql_store_result
   fun:_ZN7MysqlDb9ExecQueryEv
   fun:_ZN7MysqlDblsEPKc
   fun:_ZN7StDbSql11getUnixTimeEPKc
   fun:_ZN15StDbManagerImpl14updateUnixTimeER8StDbTime
   fun:_ZN15StDbManagerImpl14setRequestTimeEPKc
   fun:_ZN10StDbBroker11SetDateTimeEii
   fun:_ZN11St_db_Maker11UpdateTableEjP6TTableRK7TDatimePS2_
   fun:_ZN11St_db_Maker13UpdateValiSetEP9StValiSetRK7TDatime
   fun:_ZN11St_db_Maker8UpdateDBEP8TDataSetPv
   fun:_ZN8TDataSet4PassEPFNS_12EDataSetPassEPS_PvES2_i
   fun:_ZN11St_db_Maker11GetDataBaseEPKcPK7TDatime
   fun:_ZN7StMaker11GetDataBaseEPKcPK7TDatime
   fun:_ZN13St_MagFactorC8instanceEv
   fun:_ZN11StMagFMaker7InitRunEi
   fun:_ZN7StMaker4MakeEv
   fun:_ZN7StChain4MakeEv
   fun:_ZN9StBFChain4MakeEv
   fun:_ZN7StMaker5IMakeEi
   fun:_ZN7StChain4MakeEi
   fun:_ZN9StBFChain4MakeEi
   fun:_ZN7StChain9EventLoopEiiP7StMaker
   fun:_ZL23G__StChain_Cint_578_0_9P8G__valuePKcP8G__parami
}
{
   Memcheck:Cond
   fun:memcpy
   fun:cli_read_rows
   fun:mysql_store_result
   fun:_ZN7MysqlDb9ExecQueryEv
   fun:_ZN7MysqlDblsEPKc
   fun:_ZN7StDbSql11getUnixTimeEPKc
   fun:_ZN15StDbManagerImpl14updateUnixTimeER8StDbTime
   fun:_ZN15StDbManagerImpl14setRequestTimeEPKc
   fun:_ZN10StDbBroker11SetDateTimeEii
   fun:_ZN11St_db_Maker11UpdateTableEjP6TTableRK7TDatimePS2_
   fun:_ZN11St_db_Maker13UpdateValiSetEP9StValiSetRK7TDatime
   fun:_ZN11St_db_Maker8UpdateDBEP8TDataSetPv
   fun:_ZN8TDataSet4PassEPFNS_12EDataSetPassEPS_PvES2_i
   fun:_ZN11St_db_Maker11GetDataBaseEPKcPK7TDatime
   fun:_ZN7StMaker11GetDataBaseEPKcPK7TDatime
   fun:_ZN13St_MagFactorC8instanceEv
   fun:_ZN11StMagFMaker7InitRunEi
   fun:_ZN7StMaker4MakeEv
   fun:_ZN7StChain4MakeEv
   fun:_ZN9StBFChain4MakeEv
   fun:_ZN7StMaker5IMakeEi
   fun:_ZN7StChain4MakeEi
   fun:_ZN9StBFChain4MakeEi
   fun:_ZN7StChain9EventLoopEiiP7StMaker
}
{
   Memcheck:Value4
   fun:cli_read_rows
   fun:mysql_store_result
   fun:_ZN7MysqlDb9ExecQueryEv
   fun:_ZN7MysqlDblsEPKc
   fun:_ZN7StDbSql11getUnixTimeEPKc
   fun:_ZN15StDbManagerImpl14updateUnixTimeER8StDbTime
   fun:_ZN15StDbManagerImpl14setRequestTimeEPKc
   fun:_ZN10StDbBroker11SetDateTimeEii
   fun:_ZN11St_db_Maker11UpdateTableEjP6TTableRK7TDatimePS2_
   fun:_ZN11St_db_Maker13UpdateValiSetEP9StValiSetRK7TDatime
   fun:_ZN11St_db_Maker8UpdateDBEP8TDataSetPv
   fun:_ZN8TDataSet4PassEPFNS_12EDataSetPassEPS_PvES2_i
   fun:_ZN11St_db_Maker11GetDataBaseEPKcPK7TDatime
   fun:_ZN7StMaker11GetDataBaseEPKcPK7TDatime
   fun:_ZN13St_MagFactorC8instanceEv
   fun:_ZN11StMagFMaker7InitRunEi
   fun:_ZN7StMaker4MakeEv
   fun:_ZN7StChain4MakeEv
   fun:_ZN9StBFChain4MakeEv
   fun:_ZN7StMaker5IMakeEi
   fun:_ZN7StChain4MakeEi
   fun:_ZN9StBFChain4MakeEi
   fun:_ZN7StChain9EventLoopEiiP7StMaker
   fun:_ZL23G__StChain_Cint_578_0_9P8G__valuePKcP8G__parami
}
{
   Memcheck:Cond
   fun:_ZN7MysqlDb6OutputEP10StDbBuffer
   fun:_ZN7StDbSql11getUnixTimeEPKc
   fun:_ZN15StDbManagerImpl14updateUnixTimeER8StDbTime
   fun:_ZN15StDbManagerImpl14setRequestTimeEPKc
   fun:_ZN10StDbBroker11SetDateTimeEii
   fun:_ZN11St_db_Maker11UpdateTableEjP6TTableRK7TDatimePS2_
   fun:_ZN11St_db_Maker13UpdateValiSetEP9StValiSetRK7TDatime
   fun:_ZN11St_db_Maker8UpdateDBEP8TDataSetPv
   fun:_ZN8TDataSet4PassEPFNS_12EDataSetPassEPS_PvES2_i
   fun:_ZN11St_db_Maker11GetDataBaseEPKcPK7TDatime
   fun:_ZN7StMaker11GetDataBaseEPKcPK7TDatime
   fun:_ZN13St_MagFactorC8instanceEv
   fun:_ZN11StMagFMaker7InitRunEi
   fun:_ZN7StMaker4MakeEv
   fun:_ZN7StChain4MakeEv
   fun:_ZN9StBFChain4MakeEv
   fun:_ZN7StMaker5IMakeEi
   fun:_ZN7StChain4MakeEi
   fun:_ZN9StBFChain4MakeEi
   fun:_ZN7StChain9EventLoopEiiP7StMaker
   fun:_ZL23G__StChain_Cint_578_0_9P8G__valuePKcP8G__parami
   fun:_ZN4Cint19G__ExceptionWrapperEPFiP8G__valuePKcP8G__paramiES1_PcS5_i
   fun:G__execute_call
}
{
   Memcheck:Value4
   fun:_ZN7MysqlDb6OutputEP10StDbBuffer
   fun:_ZN7StDbSql11getUnixTimeEPKc
   fun:_ZN15StDbManagerImpl14updateUnixTimeER8StDbTime
   fun:_ZN15StDbManagerImpl14setRequestTimeEPKc
   fun:_ZN10StDbBroker11SetDateTimeEii
   fun:_ZN11St_db_Maker11UpdateTableEjP6TTableRK7TDatimePS2_
   fun:_ZN11St_db_Maker13UpdateValiSetEP9StValiSetRK7TDatime
   fun:_ZN11St_db_Maker8UpdateDBEP8TDataSetPv
   fun:_ZN8TDataSet4PassEPFNS_12EDataSetPassEPS_PvES2_i
   fun:_ZN11St_db_Maker11GetDataBaseEPKcPK7TDatime
   fun:_ZN7StMaker11GetDataBaseEPKcPK7TDatime
   fun:_ZN13St_MagFactorC8instanceEv
   fun:_ZN11StMagFMaker7InitRunEi
   fun:_ZN7StMaker4MakeEv
   fun:_ZN7StChain4MakeEv
   fun:_ZN9StBFChain4MakeEv
   fun:_ZN7StMaker5IMakeEi
   fun:_ZN7StChain4MakeEi
   fun:_ZN9StBFChain4MakeEi
   fun:_ZN7StChain9EventLoopEiiP7StMaker
   fun:_ZL23G__StChain_Cint_578_0_9P8G__valuePKcP8G__parami
   fun:_ZN4Cint19G__ExceptionWrapperEPFiP8G__valuePKcP8G__paramiES1_PcS5_i
   fun:G__execute_call
}
{
   Memcheck:Cond
   fun:strlen
   fun:_ZN10StDbBuffer11WriteScalarEPKcS1_
   fun:_ZN7MysqlDb6OutputEP10StDbBuffer
   fun:_ZN7StDbSql11getUnixTimeEPKc
   fun:_ZN15StDbManagerImpl14updateUnixTimeER8StDbTime
   fun:_ZN15StDbManagerImpl14setRequestTimeEPKc
   fun:_ZN10StDbBroker11SetDateTimeEii
   fun:_ZN11St_db_Maker11UpdateTableEjP6TTableRK7TDatimePS2_
   fun:_ZN11St_db_Maker13UpdateValiSetEP9StValiSetRK7TDatime
   fun:_ZN11St_db_Maker8UpdateDBEP8TDataSetPv
   fun:_ZN8TDataSet4PassEPFNS_12EDataSetPassEPS_PvES2_i
   fun:_ZN11St_db_Maker11GetDataBaseEPKcPK7TDatime
   fun:_ZN7StMaker11GetDataBaseEPKcPK7TDatime
   fun:_ZN13St_MagFactorC8instanceEv
   fun:_ZN11StMagFMaker7InitRunEi
   fun:_ZN7StMaker4MakeEv
   fun:_ZN7StChain4MakeEv
   fun:_ZN9StBFChain4MakeEv
   fun:_ZN7StMaker5IMakeEi
   fun:_ZN7StChain4MakeEi
   fun:_ZN9StBFChain4MakeEi
   fun:_ZN7StChain9EventLoopEiiP7StMaker
   fun:_ZL23G__StChain_Cint_578_0_9P8G__valuePKcP8G__parami
   fun:_ZN4Cint19G__ExceptionWrapperEPFiP8G__valuePKcP8G__paramiES1_PcS5_i
}
{
   Memcheck:Cond
   fun:strcpy
   fun:_ZN10StDbBuffer11WriteScalarEPKcS1_
   fun:_ZN7MysqlDb6OutputEP10StDbBuffer
   fun:_ZN7StDbSql11getUnixTimeEPKc
   fun:_ZN15StDbManagerImpl14updateUnixTimeER8StDbTime
   fun:_ZN15StDbManagerImpl14setRequestTimeEPKc
   fun:_ZN10StDbBroker11SetDateTimeEii
   fun:_ZN11St_db_Maker11UpdateTableEjP6TTableRK7TDatimePS2_
   fun:_ZN11St_db_Maker13UpdateValiSetEP9StValiSetRK7TDatime
   fun:_ZN11St_db_Maker8UpdateDBEP8TDataSetPv
   fun:_ZN8TDataSet4PassEPFNS_12EDataSetPassEPS_PvES2_i
   fun:_ZN11St_db_Maker11GetDataBaseEPKcPK7TDatime
   fun:_ZN7StMaker11GetDataBaseEPKcPK7TDatime
   fun:_ZN13St_MagFactorC8instanceEv
   fun:_ZN11StMagFMaker7InitRunEi
   fun:_ZN7StMaker4MakeEv
   fun:_ZN7StChain4MakeEv
   fun:_ZN9StBFChain4MakeEv
   fun:_ZN7StMaker5IMakeEi
   fun:_ZN7StChain4MakeEi
   fun:_ZN9StBFChain4MakeEi
   fun:_ZN7StChain9EventLoopEiiP7StMaker
   fun:_ZL23G__StChain_Cint_578_0_9P8G__valuePKcP8G__parami
   fun:_ZN4Cint19G__ExceptionWrapperEPFiP8G__valuePKcP8G__paramiES1_PcS5_i
}
{
   Memcheck:Cond
   fun:strlen
   fun:_ZN10StDbBuffer8AddFieldEPKc7myctypePKvi
   fun:_ZN10StDbBuffer11WriteScalarEPKcS1_
   fun:_ZN7MysqlDb6OutputEP10StDbBuffer
   fun:_ZN7StDbSql11getUnixTimeEPKc
   fun:_ZN15StDbManagerImpl14updateUnixTimeER8StDbTime
   fun:_ZN15StDbManagerImpl14setRequestTimeEPKc
   fun:_ZN10StDbBroker11SetDateTimeEii
   fun:_ZN11St_db_Maker11UpdateTableEjP6TTableRK7TDatimePS2_
   fun:_ZN11St_db_Maker13UpdateValiSetEP9StValiSetRK7TDatime
   fun:_ZN11St_db_Maker8UpdateDBEP8TDataSetPv
   fun:_ZN8TDataSet4PassEPFNS_12EDataSetPassEPS_PvES2_i
   fun:_ZN11St_db_Maker11GetDataBaseEPKcPK7TDatime
   fun:_ZN7StMaker11GetDataBaseEPKcPK7TDatime
   fun:_ZN13St_MagFactorC8instanceEv
   fun:_ZN11StMagFMaker7InitRunEi
   fun:_ZN7StMaker4MakeEv
   fun:_ZN7StChain4MakeEv
   fun:_ZN9StBFChain4MakeEv
   fun:_ZN7StMaker5IMakeEi
   fun:_ZN7StChain4MakeEi
   fun:_ZN9StBFChain4MakeEi
   fun:_ZN7StChain9EventLoopEiiP7StMaker
   fun:_ZL23G__StChain_Cint_578_0_9P8G__valuePKcP8G__parami
}
{
   Memcheck:Cond
   fun:strcpy
   fun:_ZN10StDbBuffer8AddFieldEPKc7myctypePKvi
   fun:_ZN10StDbBuffer11WriteScalarEPKcS1_
   fun:_ZN7MysqlDb6OutputEP10StDbBuffer
   fun:_ZN7StDbSql11getUnixTimeEPKc
   fun:_ZN15StDbManagerImpl14updateUnixTimeER8StDbTime
   fun:_ZN15StDbManagerImpl14setRequestTimeEPKc
   fun:_ZN10StDbBroker11SetDateTimeEii
   fun:_ZN11St_db_Maker11UpdateTableEjP6TTableRK7TDatimePS2_
   fun:_ZN11St_db_Maker13UpdateValiSetEP9StValiSetRK7TDatime
   fun:_ZN11St_db_Maker8UpdateDBEP8TDataSetPv
   fun:_ZN8TDataSet4PassEPFNS_12EDataSetPassEPS_PvES2_i
   fun:_ZN11St_db_Maker11GetDataBaseEPKcPK7TDatime
   fun:_ZN7StMaker11GetDataBaseEPKcPK7TDatime
   fun:_ZN13St_MagFactorC8instanceEv
   fun:_ZN11StMagFMaker7InitRunEi
   fun:_ZN7StMaker4MakeEv
   fun:_ZN7StChain4MakeEv
   fun:_ZN9StBFChain4MakeEv
   fun:_ZN7StMaker5IMakeEi
   fun:_ZN7StChain4MakeEi
   fun:_ZN9StBFChain4MakeEi
   fun:_ZN7StChain9EventLoopEiiP7StMaker
   fun:_ZL23G__StChain_Cint_578_0_9P8G__valuePKcP8G__parami
}
{
   Memcheck:Cond
   fun:strlen
   fun:_ZN10StDbBuffer11ChangeFieldE7myctypePKvi
   fun:_ZN10StDbBuffer8AddFieldEPKc7myctypePKvi
   fun:_ZN10StDbBuffer11WriteScalarEPKcS1_
   fun:_ZN7MysqlDb6OutputEP10StDbBuffer
   fun:_ZN7StDbSql11getUnixTimeEPKc
   fun:_ZN15StDbManagerImpl14updateUnixTimeER8StDbTime
   fun:_ZN15StDbManagerImpl14setRequestTimeEPKc
   fun:_ZN10StDbBroker11SetDateTimeEii
   fun:_ZN11St_db_Maker11UpdateTableEjP6TTableRK7TDatimePS2_
   fun:_ZN11St_db_Maker13UpdateValiSetEP9StValiSetRK7TDatime
   fun:_ZN11St_db_Maker8UpdateDBEP8TDataSetPv
   fun:_ZN8TDataSet4PassEPFNS_12EDataSetPassEPS_PvES2_i
   fun:_ZN11St_db_Maker11GetDataBaseEPKcPK7TDatime
   fun:_ZN7StMaker11GetDataBaseEPKcPK7TDatime
   fun:_ZN13St_MagFactorC8instanceEv
   fun:_ZN11StMagFMaker7InitRunEi
   fun:_ZN7StMaker4MakeEv
   fun:_ZN7StChain4MakeEv
   fun:_ZN9StBFChain4MakeEv
   fun:_ZN7StMaker5IMakeEi
   fun:_ZN7StChain4MakeEi
   fun:_ZN9StBFChain4MakeEi
   fun:_ZN7StChain9EventLoopEiiP7StMaker
}
{
   Memcheck:Cond
   fun:strcpy
   fun:_ZN10StDbBuffer11ChangeFieldE7myctypePKvi
   fun:_ZN10StDbBuffer8AddFieldEPKc7myctypePKvi
   fun:_ZN10StDbBuffer11WriteScalarEPKcS1_
   fun:_ZN7MysqlDb6OutputEP10StDbBuffer
   fun:_ZN7StDbSql11getUnixTimeEPKc
   fun:_ZN15StDbManagerImpl14updateUnixTimeER8StDbTime
   fun:_ZN15StDbManagerImpl14setRequestTimeEPKc
   fun:_ZN10StDbBroker11SetDateTimeEii
   fun:_ZN11St_db_Maker11UpdateTableEjP6TTableRK7TDatimePS2_
   fun:_ZN11St_db_Maker13UpdateValiSetEP9StValiSetRK7TDatime
   fun:_ZN11St_db_Maker8UpdateDBEP8TDataSetPv
   fun:_ZN8TDataSet4PassEPFNS_12EDataSetPassEPS_PvES2_i
   fun:_ZN11St_db_Maker11GetDataBaseEPKcPK7TDatime
   fun:_ZN7StMaker11GetDataBaseEPKcPK7TDatime
   fun:_ZN13St_MagFactorC8instanceEv
   fun:_ZN11StMagFMaker7InitRunEi
   fun:_ZN7StMaker4MakeEv
   fun:_ZN7StChain4MakeEv
   fun:_ZN9StBFChain4MakeEv
   fun:_ZN7StMaker5IMakeEi
   fun:_ZN7StChain4MakeEi
   fun:_ZN9StBFChain4MakeEi
   fun:_ZN7StChain9EventLoopEiiP7StMaker
}
{
   Memcheck:Cond
   fun:strcmp
   fun:_ZN10StDbBuffer8Find_ColEPKc
   fun:_ZN10StDbBuffer10ReadScalarERjPKc
   fun:_ZN7StDbSql11getUnixTimeEPKc
   fun:_ZN15StDbManagerImpl14updateUnixTimeER8StDbTime
   fun:_ZN15StDbManagerImpl14setRequestTimeEPKc
   fun:_ZN10StDbBroker11SetDateTimeEii
   fun:_ZN11St_db_Maker11UpdateTableEjP6TTableRK7TDatimePS2_
   fun:_ZN11St_db_Maker13UpdateValiSetEP9StValiSetRK7TDatime
   fun:_ZN11St_db_Maker8UpdateDBEP8TDataSetPv
   fun:_ZN8TDataSet4PassEPFNS_12EDataSetPassEPS_PvES2_i
   fun:_ZN11St_db_Maker11GetDataBaseEPKcPK7TDatime
   fun:_ZN7StMaker11GetDataBaseEPKcPK7TDatime
   fun:_ZN13St_MagFactorC8instanceEv
   fun:_ZN11StMagFMaker7InitRunEi
   fun:_ZN7StMaker4MakeEv
   fun:_ZN7StChain4MakeEv
   fun:_ZN9StBFChain4MakeEv
   fun:_ZN7StMaker5IMakeEi
   fun:_ZN7StChain4MakeEi
   fun:_ZN9StBFChain4MakeEi
   fun:_ZN7StChain9EventLoopEiiP7StMaker
   fun:_ZL23G__StChain_Cint_578_0_9P8G__valuePKcP8G__parami
   fun:_ZN4Cint19G__ExceptionWrapperEPFiP8G__valuePKcP8G__paramiES1_PcS5_i
}
{
   Memcheck:Value4
   fun:____strtoul_l_internal
   fun:strtoul
   fun:_ZN10StDbBuffer7StrConvEPcRj
   fun:_ZN10StDbBuffer8WriteMemEPjPv7myctype
   fun:_ZN10StDbBuffer10ReadScalarERjPKc
   fun:_ZN7StDbSql11getUnixTimeEPKc
   fun:_ZN15StDbManagerImpl14updateUnixTimeER8StDbTime
   fun:_ZN15StDbManagerImpl14setRequestTimeEPKc
   fun:_ZN10StDbBroker11SetDateTimeEii
   fun:_ZN11St_db_Maker11UpdateTableEjP6TTableRK7TDatimePS2_
   fun:_ZN11St_db_Maker13UpdateValiSetEP9StValiSetRK7TDatime
   fun:_ZN11St_db_Maker8UpdateDBEP8TDataSetPv
   fun:_ZN8TDataSet4PassEPFNS_12EDataSetPassEPS_PvES2_i
   fun:_ZN11St_db_Maker11GetDataBaseEPKcPK7TDatime
   fun:_ZN7StMaker11GetDataBaseEPKcPK7TDatime
   fun:_ZN13St_MagFactorC8instanceEv
   fun:_ZN11StMagFMaker7InitRunEi
   fun:_ZN7StMaker4MakeEv
   fun:_ZN7StChain4MakeEv
   fun:_ZN9StBFChain4MakeEv
   fun:_ZN7StMaker5IMakeEi
   fun:_ZN7StChain4MakeEi
   fun:_ZN9StBFChain4MakeEi
   fun:_ZN7StChain9EventLoopEiiP7StMaker
}
{
   Memcheck:Cond
   fun:____strtoul_l_internal
   fun:strtoul
   fun:_ZN10StDbBuffer7StrConvEPcRj
   fun:_ZN10StDbBuffer8WriteMemEPjPv7myctype
   fun:_ZN10StDbBuffer10ReadScalarERjPKc
   fun:_ZN7StDbSql11getUnixTimeEPKc
   fun:_ZN15StDbManagerImpl14updateUnixTimeER8StDbTime
   fun:_ZN15StDbManagerImpl14setRequestTimeEPKc
   fun:_ZN10StDbBroker11SetDateTimeEii
   fun:_ZN11St_db_Maker11UpdateTableEjP6TTableRK7TDatimePS2_
   fun:_ZN11St_db_Maker13UpdateValiSetEP9StValiSetRK7TDatime
   fun:_ZN11St_db_Maker8UpdateDBEP8TDataSetPv
   fun:_ZN8TDataSet4PassEPFNS_12EDataSetPassEPS_PvES2_i
   fun:_ZN11St_db_Maker11GetDataBaseEPKcPK7TDatime
   fun:_ZN7StMaker11GetDataBaseEPKcPK7TDatime
   fun:_ZN13St_MagFactorC8instanceEv
   fun:_ZN11StMagFMaker7InitRunEi
   fun:_ZN7StMaker4MakeEv
   fun:_ZN7StChain4MakeEv
   fun:_ZN9StBFChain4MakeEv
   fun:_ZN7StMaker5IMakeEi
   fun:_ZN7StChain4MakeEi
   fun:_ZN9StBFChain4MakeEi
   fun:_ZN7StChain9EventLoopEiiP7StMaker
}
{
   Memcheck:Cond
   fun:mysql_free_result
   fun:_ZN11MysqlResult7ReleaseEv
   fun:_ZN7MysqlDb7ReleaseEv
   fun:_ZN7StDbSql5clearEv
   fun:_ZN7StDbSql11getUnixTimeEPKc
   fun:_ZN15StDbManagerImpl14updateUnixTimeER8StDbTime
   fun:_ZN15StDbManagerImpl14setRequestTimeEPKc
   fun:_ZN10StDbBroker11SetDateTimeEii
   fun:_ZN11St_db_Maker11UpdateTableEjP6TTableRK7TDatimePS2_
   fun:_ZN11St_db_Maker13UpdateValiSetEP9StValiSetRK7TDatime
   fun:_ZN11St_db_Maker8UpdateDBEP8TDataSetPv
   fun:_ZN8TDataSet4PassEPFNS_12EDataSetPassEPS_PvES2_i
   fun:_ZN11St_db_Maker11GetDataBaseEPKcPK7TDatime
   fun:_ZN7StMaker11GetDataBaseEPKcPK7TDatime
   fun:_ZN13St_MagFactorC8instanceEv
   fun:_ZN11StMagFMaker7InitRunEi
   fun:_ZN7StMaker4MakeEv
   fun:_ZN7StChain4MakeEv
   fun:_ZN9StBFChain4MakeEv
   fun:_ZN7StMaker5IMakeEi
   fun:_ZN7StChain4MakeEi
   fun:_ZN9StBFChain4MakeEi
   fun:_ZN7StChain9EventLoopEiiP7StMaker
   fun:_ZL23G__StChain_Cint_578_0_9P8G__valuePKcP8G__parami
}
{
   Memcheck:Cond
   fun:cli_advanced_command
   fun:mysql_select_db
   fun:_ZN7MysqlDb12setDefaultDbEPKc
   fun:_ZN7StDbSql3useEv
   fun:_ZN14StDbServerImpl5useDbE8StDbType10StDbDomain
   fun:_ZN15StDbManagerImpl10findServerE8StDbType10StDbDomain
   fun:_ZN15StDbManagerImpl6findDbE8StDbType10StDbDomain
   fun:_ZN15StDbManagerImpl12fetchDbTableEP9StDbTable
   fun:_ZN10StDbBroker3UseEii
   fun:_ZN11St_db_Maker11UpdateTableEjP6TTableRK7TDatimePS2_
   fun:_ZN11St_db_Maker13UpdateValiSetEP9StValiSetRK7TDatime
   fun:_ZN11St_db_Maker8UpdateDBEP8TDataSetPv
   fun:_ZN8TDataSet4PassEPFNS_12EDataSetPassEPS_PvES2_i
   fun:_ZN11St_db_Maker11GetDataBaseEPKcPK7TDatime
   fun:_ZN7StMaker11GetDataBaseEPKcPK7TDatime
   fun:_ZN13St_MagFactorC8instanceEv
   fun:_ZN11StMagFMaker7InitRunEi
   fun:_ZN7StMaker4MakeEv
   fun:_ZN7StChain4MakeEv
   fun:_ZN9StBFChain4MakeEv
   fun:_ZN7StMaker5IMakeEi
   fun:_ZN7StChain4MakeEi
   fun:_ZN9StBFChain4MakeEi
   fun:_ZN7StChain9EventLoopEiiP7StMaker
}
{
   Memcheck:Cond
   fun:cli_advanced_command
   fun:mysql_send_query
   fun:mysql_real_query
   fun:_ZN7MysqlDb9ExecQueryEv
   fun:_ZN7MysqlDblsEPKc
   fun:_ZN7StDbSql17checkTableCatalogEv
   fun:_ZN7StDbSql12getDataTableEP9StDbTablej
   fun:_ZN7StDbSql7QueryDbEP9StDbTablej
   fun:_ZN15StDbManagerImpl12fetchDbTableEP9StDbTable
   fun:_ZN10StDbBroker3UseEii
   fun:_ZN11St_db_Maker11UpdateTableEjP6TTableRK7TDatimePS2_
   fun:_ZN11St_db_Maker13UpdateValiSetEP9StValiSetRK7TDatime
   fun:_ZN11St_db_Maker8UpdateDBEP8TDataSetPv
   fun:_ZN8TDataSet4PassEPFNS_12EDataSetPassEPS_PvES2_i
   fun:_ZN11St_db_Maker11GetDataBaseEPKcPK7TDatime
   fun:_ZN7StMaker11GetDataBaseEPKcPK7TDatime
   fun:_ZN13St_MagFactorC8instanceEv
   fun:_ZN11StMagFMaker7InitRunEi
   fun:_ZN7StMaker4MakeEv
   fun:_ZN7StChain4MakeEv
   fun:_ZN9StBFChain4MakeEv
   fun:_ZN7StMaker5IMakeEi
   fun:_ZN7StChain4MakeEi
   fun:_ZN9StBFChain4MakeEi
}
{
   Memcheck:Cond
   obj:/usr/lib/mysql/libmysqlclient.so.16.0.0
   fun:mysql_real_query
   fun:_ZN7MysqlDb9ExecQueryEv
   fun:_ZN7MysqlDblsEPKc
   fun:_ZN7StDbSql17checkTableCatalogEv
   fun:_ZN7StDbSql12getDataTableEP9StDbTablej
   fun:_ZN7StDbSql7QueryDbEP9StDbTablej
   fun:_ZN15StDbManagerImpl12fetchDbTableEP9StDbTable
   fun:_ZN10StDbBroker3UseEii
   fun:_ZN11St_db_Maker11UpdateTableEjP6TTableRK7TDatimePS2_
   fun:_ZN11St_db_Maker13UpdateValiSetEP9StValiSetRK7TDatime
   fun:_ZN11St_db_Maker8UpdateDBEP8TDataSetPv
   fun:_ZN8TDataSet4PassEPFNS_12EDataSetPassEPS_PvES2_i
   fun:_ZN11St_db_Maker11GetDataBaseEPKcPK7TDatime
   fun:_ZN7StMaker11GetDataBaseEPKcPK7TDatime
   fun:_ZN13St_MagFactorC8instanceEv
   fun:_ZN11StMagFMaker7InitRunEi
   fun:_ZN7StMaker4MakeEv
   fun:_ZN7StChain4MakeEv
   fun:_ZN9StBFChain4MakeEv
   fun:_ZN7StMaker5IMakeEi
   fun:_ZN7StChain4MakeEi
   fun:_ZN9StBFChain4MakeEi
   fun:_ZN7StChain9EventLoopEiiP7StMaker
}
{
   Memcheck:Value4
   fun:_itoa_word
   fun:vfprintf
   fun:vsprintf
   fun:sprintf
   fun:_ZN8StStringlsEy
   fun:_ZN8StStringlsEj
   fun:_ZN7MysqlDblsEj
   fun:_ZN7StDbSql7QueryDbEP9StDbTablej
   fun:_ZN15StDbManagerImpl12fetchDbTableEP9StDbTable
   fun:_ZN10StDbBroker3UseEii
   fun:_ZN11St_db_Maker11UpdateTableEjP6TTableRK7TDatimePS2_
   fun:_ZN11St_db_Maker13UpdateValiSetEP9StValiSetRK7TDatime
   fun:_ZN11St_db_Maker8UpdateDBEP8TDataSetPv
   fun:_ZN8TDataSet4PassEPFNS_12EDataSetPassEPS_PvES2_i
   fun:_ZN11St_db_Maker11GetDataBaseEPKcPK7TDatime
   fun:_ZN7StMaker11GetDataBaseEPKcPK7TDatime
   fun:_ZN13St_MagFactorC8instanceEv
   fun:_ZN11StMagFMaker7InitRunEi
   fun:_ZN7StMaker4MakeEv
   fun:_ZN7StChain4MakeEv
   fun:_ZN9StBFChain4MakeEv
   fun:_ZN7StMaker5IMakeEi
   fun:_ZN7StChain4MakeEi
   fun:_ZN9StBFChain4MakeEi
}
{
   Memcheck:Cond
   fun:_itoa_word
   fun:vfprintf
   fun:vsprintf
   fun:sprintf
   fun:_ZN8StStringlsEy
   fun:_ZN8StStringlsEj
   fun:_ZN7MysqlDblsEj
   fun:_ZN7StDbSql7QueryDbEP9StDbTablej
   fun:_ZN15StDbManagerImpl12fetchDbTableEP9StDbTable
   fun:_ZN10StDbBroker3UseEii
   fun:_ZN11St_db_Maker11UpdateTableEjP6TTableRK7TDatimePS2_
   fun:_ZN11St_db_Maker13UpdateValiSetEP9StValiSetRK7TDatime
   fun:_ZN11St_db_Maker8UpdateDBEP8TDataSetPv
   fun:_ZN8TDataSet4PassEPFNS_12EDataSetPassEPS_PvES2_i
   fun:_ZN11St_db_Maker11GetDataBaseEPKcPK7TDatime
   fun:_ZN7StMaker11GetDataBaseEPKcPK7TDatime
   fun:_ZN13St_MagFactorC8instanceEv
   fun:_ZN11StMagFMaker7InitRunEi
   fun:_ZN7StMaker4MakeEv
   fun:_ZN7StChain4MakeEv
   fun:_ZN9StBFChain4MakeEv
   fun:_ZN7StMaker5IMakeEi
   fun:_ZN7StChain4MakeEi
   fun:_ZN9StBFChain4MakeEi
}
{
   Memcheck:Cond
   fun:memcpy
   fun:cli_read_rows
   obj:/usr/lib/mysql/libmysqlclient.so.16.0.0
   fun:mysql_real_query
   fun:_ZN7MysqlDb9ExecQueryEv
   fun:_ZN7MysqlDblsEPKc
   fun:_ZN7StDbSql11getUnixTimeEPKc
   fun:_ZN15StDbManagerImpl14updateUnixTimeER8StDbTime
   fun:_ZN15StDbManagerImpl14setRequestTimeEPKc
   fun:_ZN10StDbBroker11SetDateTimeEii
   fun:_ZN11St_db_Maker11UpdateTableEjP6TTableRK7TDatimePS2_
   fun:_ZN11St_db_Maker13UpdateValiSetEP9StValiSetRK7TDatime
   fun:_ZN11St_db_Maker8UpdateDBEP8TDataSetPv
   fun:_ZN8TDataSet4PassEPFNS_12EDataSetPassEPS_PvES2_i
   fun:_ZN11St_db_Maker11GetDataBaseEPKcPK7TDatime
   fun:_ZN7StMaker11GetDataBaseEPKcPK7TDatime
   fun:_ZN16St_tpcPadPlanesC8instanceEv
   fun:_ZN7StTpcDbC1Ev
   fun:_ZN7StTpcDb8instanceEv
   fun:_ZN12StTpcDbMaker7InitRunEi
   fun:_ZN7StMaker4MakeEv
   fun:_ZN7StChain4MakeEv
   fun:_ZN9StBFChain4MakeEv
   fun:_ZN7StMaker5IMakeEi
}
{
   Memcheck:Cond
   fun:memcpy
   fun:strmake_root
   fun:unpack_fields
   obj:/usr/lib/mysql/libmysqlclient.so.16.0.0
   fun:mysql_real_query
   fun:_ZN7MysqlDb9ExecQueryEv
   fun:_ZN7MysqlDblsEPKc
   fun:_ZN7StDbSql11getUnixTimeEPKc
   fun:_ZN15StDbManagerImpl14updateUnixTimeER8StDbTime
   fun:_ZN15StDbManagerImpl14setRequestTimeEPKc
   fun:_ZN10StDbBroker11SetDateTimeEii
   fun:_ZN11St_db_Maker11UpdateTableEjP6TTableRK7TDatimePS2_
   fun:_ZN11St_db_Maker13UpdateValiSetEP9StValiSetRK7TDatime
   fun:_ZN11St_db_Maker8UpdateDBEP8TDataSetPv
   fun:_ZN8TDataSet4PassEPFNS_12EDataSetPassEPS_PvES2_i
   fun:_ZN11St_db_Maker11GetDataBaseEPKcPK7TDatime
   fun:_ZN7StMaker11GetDataBaseEPKcPK7TDatime
   fun:_ZN16St_tpcPadPlanesC8instanceEv
   fun:_ZN7StTpcDbC1Ev
   fun:_ZN7StTpcDb8instanceEv
   fun:_ZN12StTpcDbMaker7InitRunEi
   fun:_ZN7StMaker4MakeEv
   fun:_ZN7StChain4MakeEv
   fun:_ZN9StBFChain4MakeEv
}
{
   Memcheck:Cond
   fun:memcpy
   fun:cli_read_rows
   fun:mysql_store_result
   fun:_ZN7MysqlDb9ExecQueryEv
   fun:_ZN7MysqlDblsEPKc
   fun:_ZN7StDbSql11getUnixTimeEPKc
   fun:_ZN15StDbManagerImpl14updateUnixTimeER8StDbTime
   fun:_ZN15StDbManagerImpl14setRequestTimeEPKc
   fun:_ZN10StDbBroker11SetDateTimeEii
   fun:_ZN11St_db_Maker11UpdateTableEjP6TTableRK7TDatimePS2_
   fun:_ZN11St_db_Maker13UpdateValiSetEP9StValiSetRK7TDatime
   fun:_ZN11St_db_Maker8UpdateDBEP8TDataSetPv
   fun:_ZN8TDataSet4PassEPFNS_12EDataSetPassEPS_PvES2_i
   fun:_ZN11St_db_Maker11GetDataBaseEPKcPK7TDatime
   fun:_ZN7StMaker11GetDataBaseEPKcPK7TDatime
   fun:_ZN16St_tpcPadPlanesC8instanceEv
   fun:_ZN7StTpcDbC1Ev
   fun:_ZN7StTpcDb8instanceEv
   fun:_ZN12StTpcDbMaker7InitRunEi
   fun:_ZN7StMaker4MakeEv
   fun:_ZN7StChain4MakeEv
   fun:_ZN9StBFChain4MakeEv
   fun:_ZN7StMaker5IMakeEi
   fun:_ZN7StChain4MakeEi
}
{
   Memcheck:Value4
   fun:net_field_length
   fun:cli_read_rows
   fun:mysql_store_result
   fun:_ZN7MysqlDb9ExecQueryEv
   fun:_ZN7MysqlDblsEPKc
   fun:_ZN7StDbSql7QueryDbEP9StDbTablej
   fun:_ZN15StDbManagerImpl12fetchDbTableEP9StDbTable
   fun:_ZN10StDbBroker3UseEii
   fun:_ZN11St_db_Maker11UpdateTableEjP6TTableRK7TDatimePS2_
   fun:_ZN11St_db_Maker13UpdateValiSetEP9StValiSetRK7TDatime
   fun:_ZN11St_db_Maker8UpdateDBEP8TDataSetPv
   fun:_ZN8TDataSet4PassEPFNS_12EDataSetPassEPS_PvES2_i
   fun:_ZN11St_db_Maker11GetDataBaseEPKcPK7TDatime
   fun:_ZN7StMaker11GetDataBaseEPKcPK7TDatime
   fun:_ZN16St_tpcPadPlanesC8instanceEv
   fun:_ZN7StTpcDbC1Ev
   fun:_ZN7StTpcDb8instanceEv
   fun:_ZN12StTpcDbMaker7InitRunEi
   fun:_ZN7StMaker4MakeEv
   fun:_ZN7StChain4MakeEv
   fun:_ZN9StBFChain4MakeEv
   fun:_ZN7StMaker5IMakeEi
   fun:_ZN7StChain4MakeEi
   fun:_ZN9StBFChain4MakeEi
}
{
   Memcheck:Value4
   fun:memcpy
   fun:_ZNSs6appendEPKcj
   fun:_ZNSspLEPKc
   fun:_ZN7MysqlDb6OutputEP10StDbBuffer
   fun:_ZN7StDbSql7QueryDbEP9StDbTablej
   fun:_ZN15StDbManagerImpl12fetchDbTableEP9StDbTable
   fun:_ZN10StDbBroker3UseEii
   fun:_ZN11St_db_Maker11UpdateTableEjP6TTableRK7TDatimePS2_
   fun:_ZN11St_db_Maker13UpdateValiSetEP9StValiSetRK7TDatime
   fun:_ZN11St_db_Maker8UpdateDBEP8TDataSetPv
   fun:_ZN8TDataSet4PassEPFNS_12EDataSetPassEPS_PvES2_i
   fun:_ZN11St_db_Maker11GetDataBaseEPKcPK7TDatime
   fun:_ZN7StMaker11GetDataBaseEPKcPK7TDatime
   fun:_ZN16St_tpcPadPlanesC8instanceEv
   fun:_ZN7StTpcDbC1Ev
   fun:_ZN7StTpcDb8instanceEv
   fun:_ZN12StTpcDbMaker7InitRunEi
   fun:_ZN7StMaker4MakeEv
   fun:_ZN7StChain4MakeEv
   fun:_ZN9StBFChain4MakeEv
   fun:_ZN7StMaker5IMakeEi
   fun:_ZN7StChain4MakeEi
   fun:_ZN9StBFChain4MakeEi
   fun:_ZN7StChain9EventLoopEiiP7StMaker
}
{
   Memcheck:Cond
   fun:memcpy
   fun:strmake_root
   fun:unpack_fields
   obj:/usr/lib/mysql/libmysqlclient.so.16.0.0
   fun:mysql_real_query
   fun:_ZN7MysqlDb9ExecQueryEv
   fun:_ZN7MysqlDblsEPKc
   fun:_ZN7StDbSql7QueryDbEP9StDbTablej
   fun:_ZN15StDbManagerImpl12fetchDbTableEP9StDbTable
   fun:_ZN10StDbBroker3UseEii
   fun:_ZN11St_db_Maker11UpdateTableEjP6TTableRK7TDatimePS2_
   fun:_ZN11St_db_Maker13UpdateValiSetEP9StValiSetRK7TDatime
   fun:_ZN11St_db_Maker8UpdateDBEP8TDataSetPv
   fun:_ZN8TDataSet4PassEPFNS_12EDataSetPassEPS_PvES2_i
   fun:_ZN11St_db_Maker11GetDataBaseEPKcPK7TDatime
   fun:_ZN7StMaker11GetDataBaseEPKcPK7TDatime
   fun:_ZN17St_tpcDimensionsC8instanceEv
   fun:_ZN7StTpcDb10DimensionsEv
   fun:_ZN7StTpcDbC1Ev
   fun:_ZN7StTpcDb8instanceEv
   fun:_ZN12StTpcDbMaker7InitRunEi
   fun:_ZN7StMaker4MakeEv
   fun:_ZN7StChain4MakeEv
   fun:_ZN9StBFChain4MakeEv
}
{
   Memcheck:Cond
   fun:memcpy
   fun:_ZNSs6appendEPKcj
   fun:_ZNSspLEPKc
   fun:_ZN7MysqlDb6OutputEP10StDbBuffer
   fun:_ZN7StDbSql7QueryDbEP9StDbTablej
   fun:_ZN15StDbManagerImpl12fetchDbTableEP9StDbTable
   fun:_ZN10StDbBroker3UseEii
   fun:_ZN11St_db_Maker11UpdateTableEjP6TTableRK7TDatimePS2_
   fun:_ZN11St_db_Maker13UpdateValiSetEP9StValiSetRK7TDatime
   fun:_ZN11St_db_Maker8UpdateDBEP8TDataSetPv
   fun:_ZN8TDataSet4PassEPFNS_12EDataSetPassEPS_PvES2_i
   fun:_ZN11St_db_Maker11GetDataBaseEPKcPK7TDatime
   fun:_ZN7StMaker11GetDataBaseEPKcPK7TDatime
   fun:_ZN17St_tpcDimensionsC8instanceEv
   fun:_ZN7StTpcDb10DimensionsEv
   fun:_ZN7StTpcDbC1Ev
   fun:_ZN7StTpcDb8instanceEv
   fun:_ZN12StTpcDbMaker7InitRunEi
   fun:_ZN7StMaker4MakeEv
   fun:_ZN7StChain4MakeEv
   fun:_ZN9StBFChain4MakeEv
   fun:_ZN7StMaker5IMakeEi
   fun:_ZN7StChain4MakeEi
   fun:_ZN9StBFChain4MakeEi
}
{
   Memcheck:Cond
   fun:_ZN7MysqlDb6OutputEP10StDbBuffer
   fun:_ZN7StDbSql7QueryDbEP9StDbTablej
   fun:_ZN15StDbManagerImpl12fetchDbTableEP9StDbTable
   fun:_ZN10StDbBroker3UseEii
   fun:_ZN11St_db_Maker11UpdateTableEjP6TTableRK7TDatimePS2_
   fun:_ZN11St_db_Maker13UpdateValiSetEP9StValiSetRK7TDatime
   fun:_ZN11St_db_Maker8UpdateDBEP8TDataSetPv
   fun:_ZN8TDataSet4PassEPFNS_12EDataSetPassEPS_PvES2_i
   fun:_ZN11St_db_Maker11GetDataBaseEPKcPK7TDatime
   fun:_ZN7StMaker11GetDataBaseEPKcPK7TDatime
   fun:_ZN17St_tpcAnodeHVavgC8instanceEv
   fun:_ZN14StMagUtilities14GetTPCVoltagesEv
   fun:_ZN14StMagUtilitiesC1EP7StTpcDbi
   fun:_ZN12StTpcDbMaker7InitRunEi
   fun:_ZN7StMaker4MakeEv
   fun:_ZN7StChain4MakeEv
   fun:_ZN9StBFChain4MakeEv
   fun:_ZN7StMaker5IMakeEi
   fun:_ZN7StChain4MakeEi
   fun:_ZN9StBFChain4MakeEi
   fun:_ZN7StChain9EventLoopEiiP7StMaker
   fun:_ZL23G__StChain_Cint_578_0_9P8G__valuePKcP8G__parami
   fun:_ZN4Cint19G__ExceptionWrapperEPFiP8G__valuePKcP8G__paramiES1_PcS5_i
   fun:G__execute_call
}
{
   Memcheck:Value4
   fun:_ZN7MysqlDb6OutputEP10StDbBuffer
   fun:_ZN7StDbSql7QueryDbEP9StDbTablej
   fun:_ZN15StDbManagerImpl12fetchDbTableEP9StDbTable
   fun:_ZN10StDbBroker3UseEii
   fun:_ZN11St_db_Maker11UpdateTableEjP6TTableRK7TDatimePS2_
   fun:_ZN11St_db_Maker13UpdateValiSetEP9StValiSetRK7TDatime
   fun:_ZN11St_db_Maker8UpdateDBEP8TDataSetPv
   fun:_ZN8TDataSet4PassEPFNS_12EDataSetPassEPS_PvES2_i
   fun:_ZN11St_db_Maker11GetDataBaseEPKcPK7TDatime
   fun:_ZN7StMaker11GetDataBaseEPKcPK7TDatime
   fun:_ZN17St_tpcAnodeHVavgC8instanceEv
   fun:_ZN14StMagUtilities14GetTPCVoltagesEv
   fun:_ZN14StMagUtilitiesC1EP7StTpcDbi
   fun:_ZN12StTpcDbMaker7InitRunEi
   fun:_ZN7StMaker4MakeEv
   fun:_ZN7StChain4MakeEv
   fun:_ZN9StBFChain4MakeEv
   fun:_ZN7StMaker5IMakeEi
   fun:_ZN7StChain4MakeEi
   fun:_ZN9StBFChain4MakeEi
   fun:_ZN7StChain9EventLoopEiiP7StMaker
   fun:_ZL23G__StChain_Cint_578_0_9P8G__valuePKcP8G__parami
   fun:_ZN4Cint19G__ExceptionWrapperEPFiP8G__valuePKcP8G__paramiES1_PcS5_i
   fun:G__execute_call
}
{
   Memcheck:Cond
   fun:_ZN7StDbSql13updateEndTimeEP9StDbTablePKcj
   fun:_ZN7StDbSql7QueryDbEP9StDbTablej
   fun:_ZN15StDbManagerImpl12fetchDbTableEP9StDbTable
   fun:_ZN10StDbBroker3UseEii
   fun:_ZN11St_db_Maker11UpdateTableEjP6TTableRK7TDatimePS2_
   fun:_ZN11St_db_Maker13UpdateValiSetEP9StValiSetRK7TDatime
   fun:_ZN11St_db_Maker8UpdateDBEP8TDataSetPv
   fun:_ZN8TDataSet4PassEPFNS_12EDataSetPassEPS_PvES2_i
   fun:_ZN11St_db_Maker11GetDataBaseEPKcPK7TDatime
   fun:_ZN7StMaker11GetDataBaseEPKcPK7TDatime
   fun:_ZN17St_tpcAnodeHVavgC8instanceEv
   fun:_ZN14StMagUtilities14GetTPCVoltagesEv
   fun:_ZN14StMagUtilitiesC1EP7StTpcDbi
   fun:_ZN12StTpcDbMaker7InitRunEi
   fun:_ZN7StMaker4MakeEv
   fun:_ZN7StChain4MakeEv
   fun:_ZN9StBFChain4MakeEv
   fun:_ZN7StMaker5IMakeEi
   fun:_ZN7StChain4MakeEi
   fun:_ZN9StBFChain4MakeEi
   fun:_ZN7StChain9EventLoopEiiP7StMaker
   fun:_ZL23G__StChain_Cint_578_0_9P8G__valuePKcP8G__parami
   fun:_ZN4Cint19G__ExceptionWrapperEPFiP8G__valuePKcP8G__paramiES1_PcS5_i
   fun:G__execute_call
}
{
   Memcheck:Cond
   fun:_ZN7MysqlDb6OutputEP10StDbBuffer
   fun:_ZN7StDbSql13updateEndTimeEP9StDbTablePKcj
   fun:_ZN7StDbSql7QueryDbEP9StDbTablej
   fun:_ZN15StDbManagerImpl12fetchDbTableEP9StDbTable
   fun:_ZN10StDbBroker3UseEii
   fun:_ZN11St_db_Maker11UpdateTableEjP6TTableRK7TDatimePS2_
   fun:_ZN11St_db_Maker13UpdateValiSetEP9StValiSetRK7TDatime
   fun:_ZN11St_db_Maker8UpdateDBEP8TDataSetPv
   fun:_ZN8TDataSet4PassEPFNS_12EDataSetPassEPS_PvES2_i
   fun:_ZN11St_db_Maker11GetDataBaseEPKcPK7TDatime
   fun:_ZN7StMaker11GetDataBaseEPKcPK7TDatime
   fun:_ZN24StTpcSuperSectorPosition8instanceEv
   fun:_ZN7StTpcDb15SetTpcRotationsEv
   fun:_ZN12StTpcDbMaker7InitRunEi
   fun:_ZN7StMaker4MakeEv
   fun:_ZN7StChain4MakeEv
   fun:_ZN9StBFChain4MakeEv
   fun:_ZN7StMaker5IMakeEi
   fun:_ZN7StChain4MakeEi
   fun:_ZN9StBFChain4MakeEi
   fun:_ZN7StChain9EventLoopEiiP7StMaker
   fun:_ZL23G__StChain_Cint_578_0_9P8G__valuePKcP8G__parami
   fun:_ZN4Cint19G__ExceptionWrapperEPFiP8G__valuePKcP8G__paramiES1_PcS5_i
   fun:G__execute_call
}
{
   Memcheck:Value4
   fun:_ZN7MysqlDb6OutputEP10StDbBuffer
   fun:_ZN7StDbSql13updateEndTimeEP9StDbTablePKcj
   fun:_ZN7StDbSql7QueryDbEP9StDbTablej
   fun:_ZN15StDbManagerImpl12fetchDbTableEP9StDbTable
   fun:_ZN10StDbBroker3UseEii
   fun:_ZN11St_db_Maker11UpdateTableEjP6TTableRK7TDatimePS2_
   fun:_ZN11St_db_Maker13UpdateValiSetEP9StValiSetRK7TDatime
   fun:_ZN11St_db_Maker8UpdateDBEP8TDataSetPv
   fun:_ZN8TDataSet4PassEPFNS_12EDataSetPassEPS_PvES2_i
   fun:_ZN11St_db_Maker11GetDataBaseEPKcPK7TDatime
   fun:_ZN7StMaker11GetDataBaseEPKcPK7TDatime
   fun:_ZN24StTpcSuperSectorPosition8instanceEv
   fun:_ZN7StTpcDb15SetTpcRotationsEv
   fun:_ZN12StTpcDbMaker7InitRunEi
   fun:_ZN7StMaker4MakeEv
   fun:_ZN7StChain4MakeEv
   fun:_ZN9StBFChain4MakeEv
   fun:_ZN7StMaker5IMakeEi
   fun:_ZN7StChain4MakeEi
   fun:_ZN9StBFChain4MakeEi
   fun:_ZN7StChain9EventLoopEiiP7StMaker
   fun:_ZL23G__StChain_Cint_578_0_9P8G__valuePKcP8G__parami
   fun:_ZN4Cint19G__ExceptionWrapperEPFiP8G__valuePKcP8G__paramiES1_PcS5_i
   fun:G__execute_call
}
{
   Memcheck:Cond
   fun:_ZN7StDbSql13updateEndTimeEP9StDbTablePKcj
   fun:_ZN7StDbSql7QueryDbEP9StDbTablej
   fun:_ZN15StDbManagerImpl12fetchDbTableEP9StDbTable
   fun:_ZN10StDbBroker3UseEii
   fun:_ZN11St_db_Maker11UpdateTableEjP6TTableRK7TDatimePS2_
   fun:_ZN11St_db_Maker13UpdateValiSetEP9StValiSetRK7TDatime
   fun:_ZN11St_db_Maker8UpdateDBEP8TDataSetPv
   fun:_ZN8TDataSet4PassEPFNS_12EDataSetPassEPS_PvES2_i
   fun:_ZN11St_db_Maker11GetDataBaseEPKcPK7TDatime
   fun:_ZN7StMaker11GetDataBaseEPKcPK7TDatime
   fun:_ZN24StTpcSuperSectorPosition8instanceEv
   fun:_ZN7StTpcDb15SetTpcRotationsEv
   fun:_ZN12StTpcDbMaker7InitRunEi
   fun:_ZN7StMaker4MakeEv
   fun:_ZN7StChain4MakeEv
   fun:_ZN9StBFChain4MakeEv
   fun:_ZN7StMaker5IMakeEi
   fun:_ZN7StChain4MakeEi
   fun:_ZN9StBFChain4MakeEi
   fun:_ZN7StChain9EventLoopEiiP7StMaker
   fun:_ZL23G__StChain_Cint_578_0_9P8G__valuePKcP8G__parami
   fun:_ZN4Cint19G__ExceptionWrapperEPFiP8G__valuePKcP8G__paramiES1_PcS5_i
   fun:G__execute_call
}
{
   Memcheck:Value4
   fun:_ZN7MysqlDb6OutputEP10StDbBuffer
   fun:_ZN7StDbSql7QueryDbEP9StDbTablej
   fun:_ZN15StDbManagerImpl12fetchDbTableEP9StDbTable
   fun:_ZN10StDbBroker3UseEii
   fun:_ZN11St_db_Maker11UpdateTableEjP6TTableRK7TDatimePS2_
   fun:_ZN11St_db_Maker13UpdateValiSetEP9StValiSetRK7TDatime
   fun:_ZN11St_db_Maker8UpdateDBEP8TDataSetPv
   fun:_ZN8TDataSet4PassEPFNS_12EDataSetPassEPS_PvES2_i
   fun:_ZN8TDataSet4PassEPFNS_12EDataSetPassEPS_PvES2_i
   fun:_ZN8TDataSet4PassEPFNS_12EDataSetPassEPS_PvES2_i
   fun:_ZN11St_db_Maker8UpdateDBEP8TDataSet
   fun:_ZN11St_db_Maker11GetDataBaseEPKcPK7TDatime
   fun:_ZN7StMaker11GetDataBaseEPKcPK7TDatime
   fun:_ZN8StEEmcDb15requestDataBaseEP7StMaker
   fun:_ZN8StEEmcDb10loadTablesEP7StMaker
   fun:_ZN13StEEmcDbMaker7InitRunEi
   fun:_ZN7StMaker4MakeEv
   fun:_ZN7StChain4MakeEv
   fun:_ZN9StBFChain4MakeEv
   fun:_ZN7StMaker5IMakeEi
   fun:_ZN7StChain4MakeEi
   fun:_ZN9StBFChain4MakeEi
   fun:_ZN7StChain9EventLoopEiiP7StMaker
   fun:_ZL23G__StChain_Cint_578_0_9P8G__valuePKcP8G__parami
}
{
   Memcheck:Cond
   fun:memcpy
   fun:_ZN10StDbBuffer10MemSwapCpyEPcS0_ii8BuffMode
   fun:_ZN10StDbBuffer11ChangeFieldE7myctypePKvi
   fun:_ZN10StDbBuffer8AddFieldEPKc7myctypePKvi
   fun:_ZN10StDbBuffer10WriteArrayEPciPKc
   fun:_ZN7MysqlDb6OutputEP10StDbBuffer
   fun:_ZN7StDbSql7QueryDbEP9StDbTablej
   fun:_ZN15StDbManagerImpl12fetchDbTableEP9StDbTable
   fun:_ZN10StDbBroker3UseEii
   fun:_ZN11St_db_Maker11UpdateTableEjP6TTableRK7TDatimePS2_
   fun:_ZN11St_db_Maker13UpdateValiSetEP9StValiSetRK7TDatime
   fun:_ZN11St_db_Maker8UpdateDBEP8TDataSetPv
   fun:_ZN8TDataSet4PassEPFNS_12EDataSetPassEPS_PvES2_i
   fun:_ZN8TDataSet4PassEPFNS_12EDataSetPassEPS_PvES2_i
   fun:_ZN8TDataSet4PassEPFNS_12EDataSetPassEPS_PvES2_i
   fun:_ZN11St_db_Maker8UpdateDBEP8TDataSet
   fun:_ZN11St_db_Maker11GetDataBaseEPKcPK7TDatime
   fun:_ZN7StMaker11GetDataBaseEPKcPK7TDatime
   fun:_ZN8StEEmcDb15requestDataBaseEP7StMaker
   fun:_ZN8StEEmcDb10loadTablesEP7StMaker
   fun:_ZN13StEEmcDbMaker7InitRunEi
   fun:_ZN7StMaker4MakeEv
   fun:_ZN7StChain4MakeEv
   fun:_ZN9StBFChain4MakeEv
}
{
   Memcheck:Value4
   fun:memcpy
   fun:_ZN10StDbBuffer10MemSwapCpyEPcS0_ii8BuffMode
   fun:_ZN10StDbBuffer11ChangeFieldE7myctypePKvi
   fun:_ZN10StDbBuffer8AddFieldEPKc7myctypePKvi
   fun:_ZN10StDbBuffer10WriteArrayEPciPKc
   fun:_ZN7MysqlDb6OutputEP10StDbBuffer
   fun:_ZN7StDbSql7QueryDbEP9StDbTablej
   fun:_ZN15StDbManagerImpl12fetchDbTableEP9StDbTable
   fun:_ZN10StDbBroker3UseEii
   fun:_ZN11St_db_Maker11UpdateTableEjP6TTableRK7TDatimePS2_
   fun:_ZN11St_db_Maker13UpdateValiSetEP9StValiSetRK7TDatime
   fun:_ZN11St_db_Maker8UpdateDBEP8TDataSetPv
   fun:_ZN8TDataSet4PassEPFNS_12EDataSetPassEPS_PvES2_i
   fun:_ZN8TDataSet4PassEPFNS_12EDataSetPassEPS_PvES2_i
   fun:_ZN8TDataSet4PassEPFNS_12EDataSetPassEPS_PvES2_i
   fun:_ZN11St_db_Maker8UpdateDBEP8TDataSet
   fun:_ZN11St_db_Maker11GetDataBaseEPKcPK7TDatime
   fun:_ZN7StMaker11GetDataBaseEPKcPK7TDatime
   fun:_ZN8StEEmcDb15requestDataBaseEP7StMaker
   fun:_ZN8StEEmcDb10loadTablesEP7StMaker
   fun:_ZN13StEEmcDbMaker7InitRunEi
   fun:_ZN7StMaker4MakeEv
   fun:_ZN7StChain4MakeEv
   fun:_ZN9StBFChain4MakeEv
}
{
   Memcheck:Cond
   fun:_ZN10StDbBuffer9ReadArrayERPiRiPKc
   fun:_ZN9StDbTable11ReadElementERPcS0_i7StTypeEP10StDbBuffer
   fun:_ZN9StDbTable10dbStreamerEP11StDbBufferIb
   fun:_ZN7StDbSql7QueryDbEP9StDbTablej
   fun:_ZN15StDbManagerImpl12fetchDbTableEP9StDbTable
   fun:_ZN10StDbBroker3UseEii
   fun:_ZN11St_db_Maker11UpdateTableEjP6TTableRK7TDatimePS2_
   fun:_ZN11St_db_Maker13UpdateValiSetEP9StValiSetRK7TDatime
   fun:_ZN11St_db_Maker8UpdateDBEP8TDataSetPv
   fun:_ZN8TDataSet4PassEPFNS_12EDataSetPassEPS_PvES2_i
   fun:_ZN8TDataSet4PassEPFNS_12EDataSetPassEPS_PvES2_i
   fun:_ZN8TDataSet4PassEPFNS_12EDataSetPassEPS_PvES2_i
   fun:_ZN11St_db_Maker8UpdateDBEP8TDataSet
   fun:_ZN11St_db_Maker11GetDataBaseEPKcPK7TDatime
   fun:_ZN7StMaker11GetDataBaseEPKcPK7TDatime
   fun:_ZN8StEEmcDb15requestDataBaseEP7StMaker
   fun:_ZN8StEEmcDb10loadTablesEP7StMaker
   fun:_ZN13StEEmcDbMaker7InitRunEi
   fun:_ZN7StMaker4MakeEv
   fun:_ZN7StChain4MakeEv
   fun:_ZN9StBFChain4MakeEv
   fun:_ZN7StMaker5IMakeEi
   fun:_ZN7StChain4MakeEi
   fun:_ZN9StBFChain4MakeEi
}
{
   Memcheck:Cond
   fun:memcpy
   fun:_ZN10StDbBuffer10MemSwapCpyEPcS0_ii8BuffMode
   fun:_ZN10StDbBuffer9ReadArrayERPiRiPKc
   fun:_ZN9StDbTable11ReadElementERPcS0_i7StTypeEP10StDbBuffer
   fun:_ZN9StDbTable10dbStreamerEP11StDbBufferIb
   fun:_ZN7StDbSql7QueryDbEP9StDbTablej
   fun:_ZN15StDbManagerImpl12fetchDbTableEP9StDbTable
   fun:_ZN10StDbBroker3UseEii
   fun:_ZN11St_db_Maker11UpdateTableEjP6TTableRK7TDatimePS2_
   fun:_ZN11St_db_Maker13UpdateValiSetEP9StValiSetRK7TDatime
   fun:_ZN11St_db_Maker8UpdateDBEP8TDataSetPv
   fun:_ZN8TDataSet4PassEPFNS_12EDataSetPassEPS_PvES2_i
   fun:_ZN8TDataSet4PassEPFNS_12EDataSetPassEPS_PvES2_i
   fun:_ZN8TDataSet4PassEPFNS_12EDataSetPassEPS_PvES2_i
   fun:_ZN11St_db_Maker8UpdateDBEP8TDataSet
   fun:_ZN11St_db_Maker11GetDataBaseEPKcPK7TDatime
   fun:_ZN7StMaker11GetDataBaseEPKcPK7TDatime
   fun:_ZN8StEEmcDb15requestDataBaseEP7StMaker
   fun:_ZN8StEEmcDb10loadTablesEP7StMaker
   fun:_ZN13StEEmcDbMaker7InitRunEi
   fun:_ZN7StMaker4MakeEv
   fun:_ZN7StChain4MakeEv
   fun:_ZN9StBFChain4MakeEv
   fun:_ZN7StMaker5IMakeEi
}
{
   Memcheck:Value4
   fun:memcpy
   fun:_ZN10StDbBuffer10MemSwapCpyEPcS0_ii8BuffMode
   fun:_ZN10StDbBuffer9ReadArrayERPiRiPKc
   fun:_ZN9StDbTable11ReadElementERPcS0_i7StTypeEP10StDbBuffer
   fun:_ZN9StDbTable10dbStreamerEP11StDbBufferIb
   fun:_ZN7StDbSql7QueryDbEP9StDbTablej
   fun:_ZN15StDbManagerImpl12fetchDbTableEP9StDbTable
   fun:_ZN10StDbBroker3UseEii
   fun:_ZN11St_db_Maker11UpdateTableEjP6TTableRK7TDatimePS2_
   fun:_ZN11St_db_Maker13UpdateValiSetEP9StValiSetRK7TDatime
   fun:_ZN11St_db_Maker8UpdateDBEP8TDataSetPv
   fun:_ZN8TDataSet4PassEPFNS_12EDataSetPassEPS_PvES2_i
   fun:_ZN8TDataSet4PassEPFNS_12EDataSetPassEPS_PvES2_i
   fun:_ZN8TDataSet4PassEPFNS_12EDataSetPassEPS_PvES2_i
   fun:_ZN11St_db_Maker8UpdateDBEP8TDataSet
   fun:_ZN11St_db_Maker11GetDataBaseEPKcPK7TDatime
   fun:_ZN7StMaker11GetDataBaseEPKcPK7TDatime
   fun:_ZN8StEEmcDb15requestDataBaseEP7StMaker
   fun:_ZN8StEEmcDb10loadTablesEP7StMaker
   fun:_ZN13StEEmcDbMaker7InitRunEi
   fun:_ZN7StMaker4MakeEv
   fun:_ZN7StChain4MakeEv
   fun:_ZN9StBFChain4MakeEv
   fun:_ZN7StMaker5IMakeEi
}
{
   Memcheck:Cond
   fun:_ZN9StDbTable11ReadElementERPcS0_i7StTypeEP10StDbBuffer
   fun:_ZN9StDbTable10dbStreamerEP11StDbBufferIb
   fun:_ZN7StDbSql7QueryDbEP9StDbTablej
   fun:_ZN15StDbManagerImpl12fetchDbTableEP9StDbTable
   fun:_ZN10StDbBroker3UseEii
   fun:_ZN11St_db_Maker11UpdateTableEjP6TTableRK7TDatimePS2_
   fun:_ZN11St_db_Maker13UpdateValiSetEP9StValiSetRK7TDatime
   fun:_ZN11St_db_Maker8UpdateDBEP8TDataSetPv
   fun:_ZN8TDataSet4PassEPFNS_12EDataSetPassEPS_PvES2_i
   fun:_ZN8TDataSet4PassEPFNS_12EDataSetPassEPS_PvES2_i
   fun:_ZN8TDataSet4PassEPFNS_12EDataSetPassEPS_PvES2_i
   fun:_ZN11St_db_Maker8UpdateDBEP8TDataSet
   fun:_ZN11St_db_Maker11GetDataBaseEPKcPK7TDatime
   fun:_ZN7StMaker11GetDataBaseEPKcPK7TDatime
   fun:_ZN8StEEmcDb15requestDataBaseEP7StMaker
   fun:_ZN8StEEmcDb10loadTablesEP7StMaker
   fun:_ZN13StEEmcDbMaker7InitRunEi
   fun:_ZN7StMaker4MakeEv
   fun:_ZN7StChain4MakeEv
   fun:_ZN9StBFChain4MakeEv
   fun:_ZN7StMaker5IMakeEi
   fun:_ZN7StChain4MakeEi
   fun:_ZN9StBFChain4MakeEi
   fun:_ZN7StChain9EventLoopEiiP7StMaker
}
{
   Memcheck:Cond
   fun:_ZN10StDbBuffer9ReadArrayERPfRiPKc
   fun:_ZN9StDbTable11ReadElementERPcS0_i7StTypeEP10StDbBuffer
   fun:_ZN9StDbTable10dbStreamerEP11StDbBufferIb
   fun:_ZN7StDbSql7QueryDbEP9StDbTablej
   fun:_ZN15StDbManagerImpl12fetchDbTableEP9StDbTable
   fun:_ZN10StDbBroker3UseEii
   fun:_ZN11St_db_Maker11UpdateTableEjP6TTableRK7TDatimePS2_
   fun:_ZN11St_db_Maker13UpdateValiSetEP9StValiSetRK7TDatime
   fun:_ZN11St_db_Maker8UpdateDBEP8TDataSetPv
   fun:_ZN8TDataSet4PassEPFNS_12EDataSetPassEPS_PvES2_i
   fun:_ZN8TDataSet4PassEPFNS_12EDataSetPassEPS_PvES2_i
   fun:_ZN8TDataSet4PassEPFNS_12EDataSetPassEPS_PvES2_i
   fun:_ZN11St_db_Maker8UpdateDBEP8TDataSet
   fun:_ZN11St_db_Maker11GetDataBaseEPKcPK7TDatime
   fun:_ZN7StMaker11GetDataBaseEPKcPK7TDatime
   fun:_ZN8StEEmcDb15requestDataBaseEP7StMaker
   fun:_ZN8StEEmcDb10loadTablesEP7StMaker
   fun:_ZN13StEEmcDbMaker7InitRunEi
   fun:_ZN7StMaker4MakeEv
   fun:_ZN7StChain4MakeEv
   fun:_ZN9StBFChain4MakeEv
   fun:_ZN7StMaker5IMakeEi
   fun:_ZN7StChain4MakeEi
   fun:_ZN9StBFChain4MakeEi
}
{
   Memcheck:Cond
   fun:_ZN10StDbBuffer9ReadArrayERPtRiPKc
   fun:_ZN9StDbTable11ReadElementERPcS0_i7StTypeEP10StDbBuffer
   fun:_ZN9StDbTable10dbStreamerEP11StDbBufferIb
   fun:_ZN7StDbSql7QueryDbEP9StDbTablej
   fun:_ZN15StDbManagerImpl12fetchDbTableEP9StDbTable
   fun:_ZN10StDbBroker3UseEii
   fun:_ZN11St_db_Maker11UpdateTableEjP6TTableRK7TDatimePS2_
   fun:_ZN11St_db_Maker13UpdateValiSetEP9StValiSetRK7TDatime
   fun:_ZN11St_db_Maker8UpdateDBEP8TDataSetPv
   fun:_ZN8TDataSet4PassEPFNS_12EDataSetPassEPS_PvES2_i
   fun:_ZN8TDataSet4PassEPFNS_12EDataSetPassEPS_PvES2_i
   fun:_ZN8TDataSet4PassEPFNS_12EDataSetPassEPS_PvES2_i
   fun:_ZN11St_db_Maker8UpdateDBEP8TDataSet
   fun:_ZN11St_db_Maker11GetDataBaseEPKcPK7TDatime
   fun:_ZN7StMaker11GetDataBaseEPKcPK7TDatime
   fun:_ZN8StEEmcDb15requestDataBaseEP7StMaker
   fun:_ZN8StEEmcDb10loadTablesEP7StMaker
   fun:_ZN13StEEmcDbMaker7InitRunEi
   fun:_ZN7StMaker4MakeEv
   fun:_ZN7StChain4MakeEv
   fun:_ZN9StBFChain4MakeEv
   fun:_ZN7StMaker5IMakeEi
   fun:_ZN7StChain4MakeEi
   fun:_ZN9StBFChain4MakeEi
}
{
   Memcheck:Cond
   fun:memcpy
   fun:_ZN10StDbBuffer10MemSwapCpyEPcS0_ii8BuffMode
   fun:_ZN10StDbBuffer9ReadArrayERPtRiPKc
   fun:_ZN9StDbTable11ReadElementERPcS0_i7StTypeEP10StDbBuffer
   fun:_ZN9StDbTable10dbStreamerEP11StDbBufferIb
   fun:_ZN7StDbSql7QueryDbEP9StDbTablej
   fun:_ZN15StDbManagerImpl12fetchDbTableEP9StDbTable
   fun:_ZN10StDbBroker3UseEii
   fun:_ZN11St_db_Maker11UpdateTableEjP6TTableRK7TDatimePS2_
   fun:_ZN11St_db_Maker13UpdateValiSetEP9StValiSetRK7TDatime
   fun:_ZN11St_db_Maker8UpdateDBEP8TDataSetPv
   fun:_ZN8TDataSet4PassEPFNS_12EDataSetPassEPS_PvES2_i
   fun:_ZN8TDataSet4PassEPFNS_12EDataSetPassEPS_PvES2_i
   fun:_ZN8TDataSet4PassEPFNS_12EDataSetPassEPS_PvES2_i
   fun:_ZN11St_db_Maker8UpdateDBEP8TDataSet
   fun:_ZN11St_db_Maker11GetDataBaseEPKcPK7TDatime
   fun:_ZN7StMaker11GetDataBaseEPKcPK7TDatime
   fun:_ZN8StEEmcDb15requestDataBaseEP7StMaker
   fun:_ZN8StEEmcDb10loadTablesEP7StMaker
   fun:_ZN13StEEmcDbMaker7InitRunEi
   fun:_ZN7StMaker4MakeEv
   fun:_ZN7StChain4MakeEv
   fun:_ZN9StBFChain4MakeEv
   fun:_ZN7StMaker5IMakeEi
}
{
   Memcheck:Value4
   fun:inflate_fast
   fun:inflate
   fun:uncompress
   fun:my_uncompress
   fun:my_net_read
   fun:cli_safe_read
   obj:/usr/lib/mysql/libmysqlclient.so.16.0.0
   fun:mysql_real_query
   fun:_ZN7MysqlDb9ExecQueryEv
   fun:_ZN7MysqlDblsEPKc
   fun:_ZN7StDbSql7QueryDbEP9StDbTablej
   fun:_ZN15StDbManagerImpl12fetchDbTableEP9StDbTable
   fun:_ZN10StDbBroker3UseEii
   fun:_ZN11St_db_Maker11UpdateTableEjP6TTableRK7TDatimePS2_
   fun:_ZN11St_db_Maker13UpdateValiSetEP9StValiSetRK7TDatime
   fun:_ZN11St_db_Maker8UpdateDBEP8TDataSetPv
   fun:_ZN8TDataSet4PassEPFNS_12EDataSetPassEPS_PvES2_i
   fun:_ZN8TDataSet4PassEPFNS_12EDataSetPassEPS_PvES2_i
   fun:_ZN8TDataSet4PassEPFNS_12EDataSetPassEPS_PvES2_i
   fun:_ZN11St_db_Maker8UpdateDBEP8TDataSet
   fun:_ZN11St_db_Maker11GetDataBaseEPKcPK7TDatime
   fun:_ZN7StMaker11GetDataBaseEPKcPK7TDatime
   fun:_ZN8StEEmcDb15requestDataBaseEP7StMaker
   fun:_ZN8StEEmcDb10loadTablesEP7StMaker
}
{
   Memcheck:Free
   fun:free
   fun:G__destroy_upto
   fun:G__interpret_func
   fun:G__getfunction
   fun:G__getitem
   fun:G__getexpr
   fun:G__calc_internal
   fun:G__calc
   fun:_ZN5TCint4CalcEPKcPN12TInterpreter10EErrorCodeE
   fun:_ZN11St_db_Maker9LoadTableEP8TDataSet
   fun:_ZN11St_db_Maker13UpdateValiSetEP9StValiSetRK7TDatime
   fun:_ZN11St_db_Maker8UpdateDBEP8TDataSetPv
   fun:_ZN8TDataSet4PassEPFNS_12EDataSetPassEPS_PvES2_i
   fun:_ZN11St_db_Maker11GetDataBaseEPKcPK7TDatime
   fun:_ZN7StMaker11GetDataBaseEPKcPK7TDatime
   fun:_ZN19StTpcdEdxCorrection16ReSetCorrectionsEv
   fun:_ZN19StTpcdEdxCorrectionC1Eii
   fun:_ZN12StTpcRSMaker7InitRunEi
   fun:_ZN7StMaker4MakeEv
   fun:_ZN7StChain4MakeEv
   fun:_ZN9StBFChain4MakeEv
   fun:_ZN7StMaker5IMakeEi
   fun:_ZN7StChain4MakeEi
   fun:_ZN9StBFChain4MakeEi
}
{
   Memcheck:Value4
   fun:_ZNSs6appendEPKcj
   fun:_ZNSspLEPKc
   fun:_ZN7MysqlDb6OutputEP10StDbBuffer
   fun:_ZN7StDbSql7QueryDbEP9StDbTablej
   fun:_ZN15StDbManagerImpl12fetchDbTableEP9StDbTable
   fun:_ZN10StDbBroker3UseEii
   fun:_ZN11St_db_Maker11UpdateTableEjP6TTableRK7TDatimePS2_
   fun:_ZN11St_db_Maker13UpdateValiSetEP9StValiSetRK7TDatime
   fun:_ZN11St_db_Maker8UpdateDBEP8TDataSetPv
   fun:_ZN8TDataSet4PassEPFNS_12EDataSetPassEPS_PvES2_i
   fun:_ZN11St_db_Maker11GetDataBaseEPKcPK7TDatime
   fun:_ZN7StMaker11GetDataBaseEPKcPK7TDatime
   fun:_ZN19StTpcdEdxCorrection16ReSetCorrectionsEv
   fun:_ZN19StTpcdEdxCorrectionC1Eii
   fun:_ZN12StTpcRSMaker7InitRunEi
   fun:_ZN7StMaker4MakeEv
   fun:_ZN7StChain4MakeEv
   fun:_ZN9StBFChain4MakeEv
   fun:_ZN7StMaker5IMakeEi
   fun:_ZN7StChain4MakeEi
   fun:_ZN9StBFChain4MakeEi
   fun:_ZN7StChain9EventLoopEiiP7StMaker
   fun:_ZL23G__StChain_Cint_578_0_9P8G__valuePKcP8G__parami
   fun:_ZN4Cint19G__ExceptionWrapperEPFiP8G__valuePKcP8G__paramiES1_PcS5_i
}
{
   Memcheck:Cond
   fun:_ZN7MysqlDb14DecodeStrArrayEPcRi
   fun:_ZN7MysqlDb6OutputEP10StDbBuffer
   fun:_ZN7StDbSql7QueryDbEP9StDbTablej
   fun:_ZN15StDbManagerImpl12fetchDbTableEP9StDbTable
   fun:_ZN10StDbBroker3UseEii
   fun:_ZN11St_db_Maker11UpdateTableEjP6TTableRK7TDatimePS2_
   fun:_ZN11St_db_Maker13UpdateValiSetEP9StValiSetRK7TDatime
   fun:_ZN11St_db_Maker8UpdateDBEP8TDataSetPv
   fun:_ZN8TDataSet4PassEPFNS_12EDataSetPassEPS_PvES2_i
   fun:_ZN11St_db_Maker11GetDataBaseEPKcPK7TDatime
   fun:_ZN7StMaker11GetDataBaseEPKcPK7TDatime
   fun:_ZN19StTpcdEdxCorrection16ReSetCorrectionsEv
   fun:_ZN19StTpcdEdxCorrectionC1Eii
   fun:_ZN12StTpcRSMaker7InitRunEi
   fun:_ZN7StMaker4MakeEv
   fun:_ZN7StChain4MakeEv
   fun:_ZN9StBFChain4MakeEv
   fun:_ZN7StMaker5IMakeEi
   fun:_ZN7StChain4MakeEi
   fun:_ZN9StBFChain4MakeEi
   fun:_ZN7StChain9EventLoopEiiP7StMaker
   fun:_ZL23G__StChain_Cint_578_0_9P8G__valuePKcP8G__parami
   fun:_ZN4Cint19G__ExceptionWrapperEPFiP8G__valuePKcP8G__paramiES1_PcS5_i
   fun:G__execute_call
}
{
   Memcheck:Value4
   fun:_ZN7MysqlDb14DecodeStrArrayEPcRi
   fun:_ZN7MysqlDb6OutputEP10StDbBuffer
   fun:_ZN7StDbSql7QueryDbEP9StDbTablej
   fun:_ZN15StDbManagerImpl12fetchDbTableEP9StDbTable
   fun:_ZN10StDbBroker3UseEii
   fun:_ZN11St_db_Maker11UpdateTableEjP6TTableRK7TDatimePS2_
   fun:_ZN11St_db_Maker13UpdateValiSetEP9StValiSetRK7TDatime
   fun:_ZN11St_db_Maker8UpdateDBEP8TDataSetPv
   fun:_ZN8TDataSet4PassEPFNS_12EDataSetPassEPS_PvES2_i
   fun:_ZN11St_db_Maker11GetDataBaseEPKcPK7TDatime
   fun:_ZN7StMaker11GetDataBaseEPKcPK7TDatime
   fun:_ZN19StTpcdEdxCorrection16ReSetCorrectionsEv
   fun:_ZN19StTpcdEdxCorrectionC1Eii
   fun:_ZN12StTpcRSMaker7InitRunEi
   fun:_ZN7StMaker4MakeEv
   fun:_ZN7StChain4MakeEv
   fun:_ZN9StBFChain4MakeEv
   fun:_ZN7StMaker5IMakeEi
   fun:_ZN7StChain4MakeEi
   fun:_ZN9StBFChain4MakeEi
   fun:_ZN7StChain9EventLoopEiiP7StMaker
   fun:_ZL23G__StChain_Cint_578_0_9P8G__valuePKcP8G__parami
   fun:_ZN4Cint19G__ExceptionWrapperEPFiP8G__valuePKcP8G__paramiES1_PcS5_i
   fun:G__execute_call
}
{
   Memcheck:Cond
   fun:strncpy
   fun:_ZN7MysqlDb14DecodeStrArrayEPcRi
   fun:_ZN7MysqlDb6OutputEP10StDbBuffer
   fun:_ZN7StDbSql7QueryDbEP9StDbTablej
   fun:_ZN15StDbManagerImpl12fetchDbTableEP9StDbTable
   fun:_ZN10StDbBroker3UseEii
   fun:_ZN11St_db_Maker11UpdateTableEjP6TTableRK7TDatimePS2_
   fun:_ZN11St_db_Maker13UpdateValiSetEP9StValiSetRK7TDatime
   fun:_ZN11St_db_Maker8UpdateDBEP8TDataSetPv
   fun:_ZN8TDataSet4PassEPFNS_12EDataSetPassEPS_PvES2_i
   fun:_ZN11St_db_Maker11GetDataBaseEPKcPK7TDatime
   fun:_ZN7StMaker11GetDataBaseEPKcPK7TDatime
   fun:_ZN19StTpcdEdxCorrection16ReSetCorrectionsEv
   fun:_ZN19StTpcdEdxCorrectionC1Eii
   fun:_ZN12StTpcRSMaker7InitRunEi
   fun:_ZN7StMaker4MakeEv
   fun:_ZN7StChain4MakeEv
   fun:_ZN9StBFChain4MakeEv
   fun:_ZN7StMaker5IMakeEi
   fun:_ZN7StChain4MakeEi
   fun:_ZN9StBFChain4MakeEi
   fun:_ZN7StChain9EventLoopEiiP7StMaker
   fun:_ZL23G__StChain_Cint_578_0_9P8G__valuePKcP8G__parami
   fun:_ZN4Cint19G__ExceptionWrapperEPFiP8G__valuePKcP8G__paramiES1_PcS5_i
}
{
   Memcheck:Value4
   fun:strncpy
   fun:_ZN7MysqlDb14DecodeStrArrayEPcRi
   fun:_ZN7MysqlDb6OutputEP10StDbBuffer
   fun:_ZN7StDbSql7QueryDbEP9StDbTablej
   fun:_ZN15StDbManagerImpl12fetchDbTableEP9StDbTable
   fun:_ZN10StDbBroker3UseEii
   fun:_ZN11St_db_Maker11UpdateTableEjP6TTableRK7TDatimePS2_
   fun:_ZN11St_db_Maker13UpdateValiSetEP9StValiSetRK7TDatime
   fun:_ZN11St_db_Maker8UpdateDBEP8TDataSetPv
   fun:_ZN8TDataSet4PassEPFNS_12EDataSetPassEPS_PvES2_i
   fun:_ZN11St_db_Maker11GetDataBaseEPKcPK7TDatime
   fun:_ZN7StMaker11GetDataBaseEPKcPK7TDatime
   fun:_ZN19StTpcdEdxCorrection16ReSetCorrectionsEv
   fun:_ZN19StTpcdEdxCorrectionC1Eii
   fun:_ZN12StTpcRSMaker7InitRunEi
   fun:_ZN7StMaker4MakeEv
   fun:_ZN7StChain4MakeEv
   fun:_ZN9StBFChain4MakeEv
   fun:_ZN7StMaker5IMakeEi
   fun:_ZN7StChain4MakeEi
   fun:_ZN9StBFChain4MakeEi
   fun:_ZN7StChain9EventLoopEiiP7StMaker
   fun:_ZL23G__StChain_Cint_578_0_9P8G__valuePKcP8G__parami
   fun:_ZN4Cint19G__ExceptionWrapperEPFiP8G__valuePKcP8G__paramiES1_PcS5_i
}
{
   Memcheck:Cond
   fun:_ZN9StDbTable11ReadElementERPcS0_i7StTypeEP10StDbBuffer
   fun:_ZN9StDbTable10dbStreamerEP11StDbBufferIb
   fun:_ZN7StDbSql7QueryDbEP9StDbTablej
   fun:_ZN15StDbManagerImpl12fetchDbTableEP9StDbTable
   fun:_ZN10StDbBroker3UseEii
   fun:_ZN11St_db_Maker11UpdateTableEjP6TTableRK7TDatimePS2_
   fun:_ZN11St_db_Maker13UpdateValiSetEP9StValiSetRK7TDatime
   fun:_ZN11St_db_Maker8UpdateDBEP8TDataSetPv
   fun:_ZN8TDataSet4PassEPFNS_12EDataSetPassEPS_PvES2_i
   fun:_ZN8TDataSet4PassEPFNS_12EDataSetPassEPS_PvES2_i
   fun:_ZN11St_db_Maker8UpdateDBEP8TDataSet
   fun:_ZN11St_db_Maker11GetDataBaseEPKcPK7TDatime
   fun:_ZN7StMaker11GetDataBaseEPKcPK7TDatime
   fun:_ZN7StMaker10GetInputDBEPKc
   fun:_ZN12StBemcTables10loadTablesEP7StMaker
   fun:_ZN19StEmcSimulatorMaker11makeRawHitsEv
   fun:_ZN19StEmcSimulatorMaker4MakeEv
   fun:_ZN7StMaker4MakeEv
   fun:_ZN7StChain4MakeEv
   fun:_ZN9StBFChain4MakeEv
   fun:_ZN7StMaker5IMakeEi
   fun:_ZN7StChain4MakeEi
   fun:_ZN9StBFChain4MakeEi
   fun:_ZN7StChain9EventLoopEiiP7StMaker
}
{
   Memcheck:Cond
   fun:_ZN10StDbBuffer9ReadArrayERPsRiPKc
   fun:_ZN9StDbTable11ReadElementERPcS0_i7StTypeEP10StDbBuffer
   fun:_ZN9StDbTable10dbStreamerEP11StDbBufferIb
   fun:_ZN7StDbSql7QueryDbEP9StDbTablej
   fun:_ZN15StDbManagerImpl12fetchDbTableEP9StDbTable
   fun:_ZN10StDbBroker3UseEii
   fun:_ZN11St_db_Maker11UpdateTableEjP6TTableRK7TDatimePS2_
   fun:_ZN11St_db_Maker13UpdateValiSetEP9StValiSetRK7TDatime
   fun:_ZN11St_db_Maker8UpdateDBEP8TDataSetPv
   fun:_ZN8TDataSet4PassEPFNS_12EDataSetPassEPS_PvES2_i
   fun:_ZN8TDataSet4PassEPFNS_12EDataSetPassEPS_PvES2_i
   fun:_ZN11St_db_Maker8UpdateDBEP8TDataSet
   fun:_ZN11St_db_Maker11GetDataBaseEPKcPK7TDatime
   fun:_ZN7StMaker11GetDataBaseEPKcPK7TDatime
   fun:_ZN7StMaker10GetInputDBEPKc
   fun:_ZN12StBemcTables10loadTablesEP7StMaker
   fun:_ZN19StEmcSimulatorMaker11makeRawHitsEv
   fun:_ZN19StEmcSimulatorMaker4MakeEv
   fun:_ZN7StMaker4MakeEv
   fun:_ZN7StChain4MakeEv
   fun:_ZN9StBFChain4MakeEv
   fun:_ZN7StMaker5IMakeEi
   fun:_ZN7StChain4MakeEi
   fun:_ZN9StBFChain4MakeEi
}
{
   Memcheck:Cond
   fun:_ZN10StDbBuffer9ReadArrayERPjRiPKc
   fun:_ZN9StDbTable11ReadElementERPcS0_i7StTypeEP10StDbBuffer
   fun:_ZN9StDbTable10dbStreamerEP11StDbBufferIb
   fun:_ZN7StDbSql7QueryDbEP9StDbTablej
   fun:_ZN15StDbManagerImpl12fetchDbTableEP9StDbTable
   fun:_ZN10StDbBroker3UseEii
   fun:_ZN11St_db_Maker11UpdateTableEjP6TTableRK7TDatimePS2_
   fun:_ZN11St_db_Maker13UpdateValiSetEP9StValiSetRK7TDatime
   fun:_ZN11St_db_Maker8UpdateDBEP8TDataSetPv
   fun:_ZN8TDataSet4PassEPFNS_12EDataSetPassEPS_PvES2_i
   fun:_ZN8TDataSet4PassEPFNS_12EDataSetPassEPS_PvES2_i
   fun:_ZN11St_db_Maker8UpdateDBEP8TDataSet
   fun:_ZN11St_db_Maker11GetDataBaseEPKcPK7TDatime
   fun:_ZN7StMaker11GetDataBaseEPKcPK7TDatime
   fun:_ZN7StMaker10GetInputDBEPKc
   fun:_ZN12StBemcTables10loadTablesEP7StMaker
   fun:_ZN19StEmcSimulatorMaker11makeRawHitsEv
   fun:_ZN19StEmcSimulatorMaker4MakeEv
   fun:_ZN7StMaker4MakeEv
   fun:_ZN7StChain4MakeEv
   fun:_ZN9StBFChain4MakeEv
   fun:_ZN7StMaker5IMakeEi
   fun:_ZN7StChain4MakeEi
   fun:_ZN9StBFChain4MakeEi
}
{
   Memcheck:Value4
   fun:memmove
   fun:my_net_read
   fun:cli_safe_read
   fun:cli_read_rows
   fun:mysql_store_result
   fun:_ZN7MysqlDb9ExecQueryEv
   fun:_ZN7MysqlDblsEPKc
   fun:_ZN7StDbSql7QueryDbEP9StDbTablej
   fun:_ZN15StDbManagerImpl12fetchDbTableEP9StDbTable
   fun:_ZN10StDbBroker3UseEii
   fun:_ZN11St_db_Maker11UpdateTableEjP6TTableRK7TDatimePS2_
   fun:_ZN11St_db_Maker13UpdateValiSetEP9StValiSetRK7TDatime
   fun:_ZN11St_db_Maker8UpdateDBEP8TDataSetPv
   fun:_ZN8TDataSet4PassEPFNS_12EDataSetPassEPS_PvES2_i
   fun:_ZN11St_db_Maker11GetDataBaseEPKcPK7TDatime
   fun:_ZN7StMaker11GetDataBaseEPKcPK7TDatime
   fun:_ZN15StVpdCalibMaker14initParametersEi
   fun:_ZN15StVpdCalibMaker7InitRunEi
   fun:_ZN7StMaker4MakeEv
   fun:_ZN7StChain4MakeEv
   fun:_ZN9StBFChain4MakeEv
   fun:_ZN7StMaker5IMakeEi
   fun:_ZN7StChain4MakeEi
   fun:_ZN9StBFChain4MakeEi
}
